GAS LISTING /tmp/ccvUPO8Q.s 			page 1


   1              		.file	"costas2_impl.cc"
   2              		.text
   3              	.Ltext0:
   4              		.section	.rodata
   7              	_ZStL19piecewise_construct:
   8 0000 00       		.zero	1
   9              		.section	.text._ZNSt9exceptionC2Ev,"axG",@progbits,_ZNSt9exceptionC5Ev,comdat
  10              		.align 2
  11              		.weak	_ZNSt9exceptionC2Ev
  13              	_ZNSt9exceptionC2Ev:
  14              	.LFB304:
  15              		.file 1 "/usr/include/c++/6/exception"
   1:/usr/include/c++/6/exception **** // Exception Handling support header for -*- C++ -*-
   2:/usr/include/c++/6/exception **** 
   3:/usr/include/c++/6/exception **** // Copyright (C) 1995-2016 Free Software Foundation, Inc.
   4:/usr/include/c++/6/exception **** //
   5:/usr/include/c++/6/exception **** // This file is part of GCC.
   6:/usr/include/c++/6/exception **** //
   7:/usr/include/c++/6/exception **** // GCC is free software; you can redistribute it and/or modify
   8:/usr/include/c++/6/exception **** // it under the terms of the GNU General Public License as published by
   9:/usr/include/c++/6/exception **** // the Free Software Foundation; either version 3, or (at your option)
  10:/usr/include/c++/6/exception **** // any later version.
  11:/usr/include/c++/6/exception **** //
  12:/usr/include/c++/6/exception **** // GCC is distributed in the hope that it will be useful,
  13:/usr/include/c++/6/exception **** // but WITHOUT ANY WARRANTY; without even the implied warranty of
  14:/usr/include/c++/6/exception **** // MERCHANTABILITY or FITNESS FOR A PARTICULAR PURPOSE.  See the
  15:/usr/include/c++/6/exception **** // GNU General Public License for more details.
  16:/usr/include/c++/6/exception **** //
  17:/usr/include/c++/6/exception **** // Under Section 7 of GPL version 3, you are granted additional
  18:/usr/include/c++/6/exception **** // permissions described in the GCC Runtime Library Exception, version
  19:/usr/include/c++/6/exception **** // 3.1, as published by the Free Software Foundation.
  20:/usr/include/c++/6/exception **** 
  21:/usr/include/c++/6/exception **** // You should have received a copy of the GNU General Public License and
  22:/usr/include/c++/6/exception **** // a copy of the GCC Runtime Library Exception along with this program;
  23:/usr/include/c++/6/exception **** // see the files COPYING3 and COPYING.RUNTIME respectively.  If not, see
  24:/usr/include/c++/6/exception **** // <http://www.gnu.org/licenses/>.
  25:/usr/include/c++/6/exception **** 
  26:/usr/include/c++/6/exception **** /** @file exception
  27:/usr/include/c++/6/exception ****  *  This is a Standard C++ Library header.
  28:/usr/include/c++/6/exception ****  */
  29:/usr/include/c++/6/exception **** 
  30:/usr/include/c++/6/exception **** #ifndef __EXCEPTION__
  31:/usr/include/c++/6/exception **** #define __EXCEPTION__
  32:/usr/include/c++/6/exception **** 
  33:/usr/include/c++/6/exception **** #pragma GCC system_header
  34:/usr/include/c++/6/exception **** 
  35:/usr/include/c++/6/exception **** #pragma GCC visibility push(default)
  36:/usr/include/c++/6/exception **** 
  37:/usr/include/c++/6/exception **** #include <bits/c++config.h>
  38:/usr/include/c++/6/exception **** #if !(defined(__ARM_EABI__) && !defined(__ARM_PCS_VFP))
  39:/usr/include/c++/6/exception **** #include <bits/atomic_lockfree_defines.h>
  40:/usr/include/c++/6/exception **** #endif
  41:/usr/include/c++/6/exception **** 
  42:/usr/include/c++/6/exception **** extern "C++" {
  43:/usr/include/c++/6/exception **** 
  44:/usr/include/c++/6/exception **** namespace std
  45:/usr/include/c++/6/exception **** {
GAS LISTING /tmp/ccvUPO8Q.s 			page 2


  46:/usr/include/c++/6/exception ****   /**
  47:/usr/include/c++/6/exception ****    * @defgroup exceptions Exceptions
  48:/usr/include/c++/6/exception ****    * @ingroup diagnostics
  49:/usr/include/c++/6/exception ****    *
  50:/usr/include/c++/6/exception ****    * Classes and functions for reporting errors via exception classes.
  51:/usr/include/c++/6/exception ****    * @{
  52:/usr/include/c++/6/exception ****    */
  53:/usr/include/c++/6/exception **** 
  54:/usr/include/c++/6/exception ****   /**
  55:/usr/include/c++/6/exception ****    *  @brief Base class for all library exceptions.
  56:/usr/include/c++/6/exception ****    *
  57:/usr/include/c++/6/exception ****    *  This is the base class for all exceptions thrown by the standard
  58:/usr/include/c++/6/exception ****    *  library, and by certain language expressions.  You are free to derive
  59:/usr/include/c++/6/exception ****    *  your own %exception classes, or use a different hierarchy, or to
  60:/usr/include/c++/6/exception ****    *  throw non-class data (e.g., fundamental types).
  61:/usr/include/c++/6/exception ****    */
  62:/usr/include/c++/6/exception ****   class exception
  63:/usr/include/c++/6/exception ****   {
  64:/usr/include/c++/6/exception ****   public:
  65:/usr/include/c++/6/exception ****     exception() _GLIBCXX_USE_NOEXCEPT { }
  16              		.loc 1 65 0
  17              		.cfi_startproc
  18 0000 55       		pushq	%rbp
  19              		.cfi_def_cfa_offset 16
  20              		.cfi_offset 6, -16
  21 0001 4889E5   		movq	%rsp, %rbp
  22              		.cfi_def_cfa_register 6
  23 0004 48897DF8 		movq	%rdi, -8(%rbp)
  24              	.LBB2:
  25              		.loc 1 65 0
  26 0008 488D1500 		leaq	16+_ZTVSt9exception(%rip), %rdx
  26      000000
  27 000f 488B45F8 		movq	-8(%rbp), %rax
  28 0013 488910   		movq	%rdx, (%rax)
  29              	.LBE2:
  30 0016 90       		nop
  31 0017 5D       		popq	%rbp
  32              		.cfi_def_cfa 7, 8
  33 0018 C3       		ret
  34              		.cfi_endproc
  35              	.LFE304:
  37              		.weak	_ZNSt9exceptionC1Ev
  38              		.set	_ZNSt9exceptionC1Ev,_ZNSt9exceptionC2Ev
  39              		.section	.text._ZNSt13bad_exceptionC2Ev,"axG",@progbits,_ZNSt13bad_exceptionC5Ev,comdat
  40              		.align 2
  41              		.weak	_ZNSt13bad_exceptionC2Ev
  43              	_ZNSt13bad_exceptionC2Ev:
  44              	.LFB307:
  66:/usr/include/c++/6/exception ****     virtual ~exception() _GLIBCXX_TXN_SAFE_DYN _GLIBCXX_USE_NOEXCEPT;
  67:/usr/include/c++/6/exception **** 
  68:/usr/include/c++/6/exception ****     /** Returns a C-style character string describing the general cause
  69:/usr/include/c++/6/exception ****      *  of the current error.  */
  70:/usr/include/c++/6/exception ****     virtual const char*
  71:/usr/include/c++/6/exception ****     what() const _GLIBCXX_TXN_SAFE_DYN _GLIBCXX_USE_NOEXCEPT;
  72:/usr/include/c++/6/exception ****   };
  73:/usr/include/c++/6/exception **** 
  74:/usr/include/c++/6/exception ****   /** If an %exception is thrown which is not listed in a function's
GAS LISTING /tmp/ccvUPO8Q.s 			page 3


  75:/usr/include/c++/6/exception ****    *  %exception specification, one of these may be thrown.  */
  76:/usr/include/c++/6/exception ****   class bad_exception : public exception
  77:/usr/include/c++/6/exception ****   {
  78:/usr/include/c++/6/exception ****   public:
  79:/usr/include/c++/6/exception ****     bad_exception() _GLIBCXX_USE_NOEXCEPT { }
  45              		.loc 1 79 0
  46              		.cfi_startproc
  47 0000 55       		pushq	%rbp
  48              		.cfi_def_cfa_offset 16
  49              		.cfi_offset 6, -16
  50 0001 4889E5   		movq	%rsp, %rbp
  51              		.cfi_def_cfa_register 6
  52 0004 4883EC10 		subq	$16, %rsp
  53 0008 48897DF8 		movq	%rdi, -8(%rbp)
  54              	.LBB3:
  55              		.loc 1 79 0
  56 000c 488B45F8 		movq	-8(%rbp), %rax
  57 0010 4889C7   		movq	%rax, %rdi
  58 0013 E8000000 		call	_ZNSt9exceptionC2Ev
  58      00
  59 0018 488D1500 		leaq	16+_ZTVSt13bad_exception(%rip), %rdx
  59      000000
  60 001f 488B45F8 		movq	-8(%rbp), %rax
  61 0023 488910   		movq	%rdx, (%rax)
  62              	.LBE3:
  63 0026 90       		nop
  64 0027 C9       		leave
  65              		.cfi_def_cfa 7, 8
  66 0028 C3       		ret
  67              		.cfi_endproc
  68              	.LFE307:
  70              		.weak	_ZNSt13bad_exceptionC1Ev
  71              		.set	_ZNSt13bad_exceptionC1Ev,_ZNSt13bad_exceptionC2Ev
  72              		.section	.text._ZNSt9bad_allocC2Ev,"axG",@progbits,_ZNSt9bad_allocC5Ev,comdat
  73              		.align 2
  74              		.weak	_ZNSt9bad_allocC2Ev
  76              	_ZNSt9bad_allocC2Ev:
  77              	.LFB334:
  78              		.file 2 "/usr/include/c++/6/new"
   1:/usr/include/c++/6/new **** // The -*- C++ -*- dynamic memory management header.
   2:/usr/include/c++/6/new **** 
   3:/usr/include/c++/6/new **** // Copyright (C) 1994-2016 Free Software Foundation, Inc.
   4:/usr/include/c++/6/new **** 
   5:/usr/include/c++/6/new **** // This file is part of GCC.
   6:/usr/include/c++/6/new **** //
   7:/usr/include/c++/6/new **** // GCC is free software; you can redistribute it and/or modify
   8:/usr/include/c++/6/new **** // it under the terms of the GNU General Public License as published by
   9:/usr/include/c++/6/new **** // the Free Software Foundation; either version 3, or (at your option)
  10:/usr/include/c++/6/new **** // any later version.
  11:/usr/include/c++/6/new **** // 
  12:/usr/include/c++/6/new **** // GCC is distributed in the hope that it will be useful,
  13:/usr/include/c++/6/new **** // but WITHOUT ANY WARRANTY; without even the implied warranty of
  14:/usr/include/c++/6/new **** // MERCHANTABILITY or FITNESS FOR A PARTICULAR PURPOSE.  See the
  15:/usr/include/c++/6/new **** // GNU General Public License for more details.
  16:/usr/include/c++/6/new **** // 
  17:/usr/include/c++/6/new **** // Under Section 7 of GPL version 3, you are granted additional
  18:/usr/include/c++/6/new **** // permissions described in the GCC Runtime Library Exception, version
GAS LISTING /tmp/ccvUPO8Q.s 			page 4


  19:/usr/include/c++/6/new **** // 3.1, as published by the Free Software Foundation.
  20:/usr/include/c++/6/new **** 
  21:/usr/include/c++/6/new **** // You should have received a copy of the GNU General Public License and
  22:/usr/include/c++/6/new **** // a copy of the GCC Runtime Library Exception along with this program;
  23:/usr/include/c++/6/new **** // see the files COPYING3 and COPYING.RUNTIME respectively.  If not, see
  24:/usr/include/c++/6/new **** // <http://www.gnu.org/licenses/>.
  25:/usr/include/c++/6/new **** 
  26:/usr/include/c++/6/new **** /** @file new
  27:/usr/include/c++/6/new ****  *  This is a Standard C++ Library header.
  28:/usr/include/c++/6/new ****  *
  29:/usr/include/c++/6/new ****  *  The header @c new defines several functions to manage dynamic memory and
  30:/usr/include/c++/6/new ****  *  handling memory allocation errors; see
  31:/usr/include/c++/6/new ****  *  http://gcc.gnu.org/onlinedocs/libstdc++/18_support/howto.html#4 for more.
  32:/usr/include/c++/6/new ****  */
  33:/usr/include/c++/6/new **** 
  34:/usr/include/c++/6/new **** #ifndef _NEW
  35:/usr/include/c++/6/new **** #define _NEW
  36:/usr/include/c++/6/new **** 
  37:/usr/include/c++/6/new **** #pragma GCC system_header
  38:/usr/include/c++/6/new **** 
  39:/usr/include/c++/6/new **** #include <bits/c++config.h>
  40:/usr/include/c++/6/new **** #include <exception>
  41:/usr/include/c++/6/new **** 
  42:/usr/include/c++/6/new **** #pragma GCC visibility push(default)
  43:/usr/include/c++/6/new **** 
  44:/usr/include/c++/6/new **** extern "C++" {
  45:/usr/include/c++/6/new **** 
  46:/usr/include/c++/6/new **** namespace std 
  47:/usr/include/c++/6/new **** {
  48:/usr/include/c++/6/new ****   /**
  49:/usr/include/c++/6/new ****    *  @brief  Exception possibly thrown by @c new.
  50:/usr/include/c++/6/new ****    *  @ingroup exceptions
  51:/usr/include/c++/6/new ****    *
  52:/usr/include/c++/6/new ****    *  @c bad_alloc (or classes derived from it) is used to report allocation
  53:/usr/include/c++/6/new ****    *  errors from the throwing forms of @c new.  */
  54:/usr/include/c++/6/new ****   class bad_alloc : public exception 
  55:/usr/include/c++/6/new ****   {
  56:/usr/include/c++/6/new ****   public:
  57:/usr/include/c++/6/new ****     bad_alloc() throw() { }
  79              		.loc 2 57 0
  80              		.cfi_startproc
  81 0000 55       		pushq	%rbp
  82              		.cfi_def_cfa_offset 16
  83              		.cfi_offset 6, -16
  84 0001 4889E5   		movq	%rsp, %rbp
  85              		.cfi_def_cfa_register 6
  86 0004 4883EC10 		subq	$16, %rsp
  87 0008 48897DF8 		movq	%rdi, -8(%rbp)
  88              	.LBB4:
  89              		.loc 2 57 0
  90 000c 488B45F8 		movq	-8(%rbp), %rax
  91 0010 4889C7   		movq	%rax, %rdi
  92 0013 E8000000 		call	_ZNSt9exceptionC2Ev
  92      00
  93 0018 488D1500 		leaq	16+_ZTVSt9bad_alloc(%rip), %rdx
  93      000000
  94 001f 488B45F8 		movq	-8(%rbp), %rax
GAS LISTING /tmp/ccvUPO8Q.s 			page 5


  95 0023 488910   		movq	%rdx, (%rax)
  96              	.LBE4:
  97 0026 90       		nop
  98 0027 C9       		leave
  99              		.cfi_def_cfa 7, 8
 100 0028 C3       		ret
 101              		.cfi_endproc
 102              	.LFE334:
 104              		.weak	_ZNSt9bad_allocC1Ev
 105              		.set	_ZNSt9bad_allocC1Ev,_ZNSt9bad_allocC2Ev
 106              		.section	.text._ZnwmPv,"axG",@progbits,_ZnwmPv,comdat
 107              		.weak	_ZnwmPv
 109              	_ZnwmPv:
 110              	.LFB339:
  58:/usr/include/c++/6/new **** 
  59:/usr/include/c++/6/new ****     // This declaration is not useless:
  60:/usr/include/c++/6/new ****     // http://gcc.gnu.org/onlinedocs/gcc-3.0.2/gcc_6.html#SEC118
  61:/usr/include/c++/6/new ****     virtual ~bad_alloc() throw();
  62:/usr/include/c++/6/new **** 
  63:/usr/include/c++/6/new ****     // See comment in eh_exception.cc.
  64:/usr/include/c++/6/new ****     virtual const char* what() const throw();
  65:/usr/include/c++/6/new ****   };
  66:/usr/include/c++/6/new **** 
  67:/usr/include/c++/6/new **** #if __cplusplus >= 201103L
  68:/usr/include/c++/6/new ****   class bad_array_new_length : public bad_alloc
  69:/usr/include/c++/6/new ****   {
  70:/usr/include/c++/6/new ****   public:
  71:/usr/include/c++/6/new ****     bad_array_new_length() throw() { };
  72:/usr/include/c++/6/new **** 
  73:/usr/include/c++/6/new ****     // This declaration is not useless:
  74:/usr/include/c++/6/new ****     // http://gcc.gnu.org/onlinedocs/gcc-3.0.2/gcc_6.html#SEC118
  75:/usr/include/c++/6/new ****     virtual ~bad_array_new_length() throw();
  76:/usr/include/c++/6/new **** 
  77:/usr/include/c++/6/new ****     // See comment in eh_exception.cc.
  78:/usr/include/c++/6/new ****     virtual const char* what() const throw();
  79:/usr/include/c++/6/new ****   };
  80:/usr/include/c++/6/new **** #endif
  81:/usr/include/c++/6/new **** 
  82:/usr/include/c++/6/new ****   struct nothrow_t
  83:/usr/include/c++/6/new ****   {
  84:/usr/include/c++/6/new **** #if __cplusplus >= 201103L
  85:/usr/include/c++/6/new ****     explicit nothrow_t() = default;
  86:/usr/include/c++/6/new **** #endif
  87:/usr/include/c++/6/new ****   };
  88:/usr/include/c++/6/new **** 
  89:/usr/include/c++/6/new ****   extern const nothrow_t nothrow;
  90:/usr/include/c++/6/new **** 
  91:/usr/include/c++/6/new ****   /** If you write your own error handler to be called by @c new, it must
  92:/usr/include/c++/6/new ****    *  be of this type.  */
  93:/usr/include/c++/6/new ****   typedef void (*new_handler)();
  94:/usr/include/c++/6/new **** 
  95:/usr/include/c++/6/new ****   /// Takes a replacement handler as the argument, returns the
  96:/usr/include/c++/6/new ****   /// previous handler.
  97:/usr/include/c++/6/new ****   new_handler set_new_handler(new_handler) throw();
  98:/usr/include/c++/6/new **** 
  99:/usr/include/c++/6/new **** #if __cplusplus >= 201103L
 100:/usr/include/c++/6/new ****   /// Return the current new handler.
GAS LISTING /tmp/ccvUPO8Q.s 			page 6


 101:/usr/include/c++/6/new ****   new_handler get_new_handler() noexcept;
 102:/usr/include/c++/6/new **** #endif
 103:/usr/include/c++/6/new **** } // namespace std
 104:/usr/include/c++/6/new **** 
 105:/usr/include/c++/6/new **** //@{
 106:/usr/include/c++/6/new **** /** These are replaceable signatures:
 107:/usr/include/c++/6/new ****  *  - normal single new and delete (no arguments, throw @c bad_alloc on error)
 108:/usr/include/c++/6/new ****  *  - normal array new and delete (same)
 109:/usr/include/c++/6/new ****  *  - @c nothrow single new and delete (take a @c nothrow argument, return
 110:/usr/include/c++/6/new ****  *    @c NULL on error)
 111:/usr/include/c++/6/new ****  *  - @c nothrow array new and delete (same)
 112:/usr/include/c++/6/new ****  *
 113:/usr/include/c++/6/new ****  *  Placement new and delete signatures (take a memory address argument,
 114:/usr/include/c++/6/new ****  *  does nothing) may not be replaced by a user's program.
 115:/usr/include/c++/6/new **** */
 116:/usr/include/c++/6/new **** void* operator new(std::size_t) _GLIBCXX_THROW (std::bad_alloc)
 117:/usr/include/c++/6/new ****   __attribute__((__externally_visible__));
 118:/usr/include/c++/6/new **** void* operator new[](std::size_t) _GLIBCXX_THROW (std::bad_alloc)
 119:/usr/include/c++/6/new ****   __attribute__((__externally_visible__));
 120:/usr/include/c++/6/new **** void operator delete(void*) _GLIBCXX_USE_NOEXCEPT
 121:/usr/include/c++/6/new ****   __attribute__((__externally_visible__));
 122:/usr/include/c++/6/new **** void operator delete[](void*) _GLIBCXX_USE_NOEXCEPT
 123:/usr/include/c++/6/new ****   __attribute__((__externally_visible__));
 124:/usr/include/c++/6/new **** #if __cpp_sized_deallocation
 125:/usr/include/c++/6/new **** void operator delete(void*, std::size_t) _GLIBCXX_USE_NOEXCEPT
 126:/usr/include/c++/6/new ****   __attribute__((__externally_visible__));
 127:/usr/include/c++/6/new **** void operator delete[](void*, std::size_t) _GLIBCXX_USE_NOEXCEPT
 128:/usr/include/c++/6/new ****   __attribute__((__externally_visible__));
 129:/usr/include/c++/6/new **** #endif
 130:/usr/include/c++/6/new **** void* operator new(std::size_t, const std::nothrow_t&) _GLIBCXX_USE_NOEXCEPT
 131:/usr/include/c++/6/new ****   __attribute__((__externally_visible__));
 132:/usr/include/c++/6/new **** void* operator new[](std::size_t, const std::nothrow_t&) _GLIBCXX_USE_NOEXCEPT
 133:/usr/include/c++/6/new ****   __attribute__((__externally_visible__));
 134:/usr/include/c++/6/new **** void operator delete(void*, const std::nothrow_t&) _GLIBCXX_USE_NOEXCEPT
 135:/usr/include/c++/6/new ****   __attribute__((__externally_visible__));
 136:/usr/include/c++/6/new **** void operator delete[](void*, const std::nothrow_t&) _GLIBCXX_USE_NOEXCEPT
 137:/usr/include/c++/6/new ****   __attribute__((__externally_visible__));
 138:/usr/include/c++/6/new **** #if __cpp_sized_deallocation
 139:/usr/include/c++/6/new **** void operator delete(void*, std::size_t, const std::nothrow_t&) _GLIBCXX_USE_NOEXCEPT
 140:/usr/include/c++/6/new ****   __attribute__((__externally_visible__));
 141:/usr/include/c++/6/new **** void operator delete[](void*, std::size_t, const std::nothrow_t&) _GLIBCXX_USE_NOEXCEPT
 142:/usr/include/c++/6/new ****   __attribute__((__externally_visible__));
 143:/usr/include/c++/6/new **** #endif
 144:/usr/include/c++/6/new **** 
 145:/usr/include/c++/6/new **** // Default placement versions of operator new.
 146:/usr/include/c++/6/new **** inline void* operator new(std::size_t, void* __p) _GLIBCXX_USE_NOEXCEPT
 147:/usr/include/c++/6/new **** { return __p; }
 111              		.loc 2 147 0
 112              		.cfi_startproc
 113 0000 55       		pushq	%rbp
 114              		.cfi_def_cfa_offset 16
 115              		.cfi_offset 6, -16
 116 0001 4889E5   		movq	%rsp, %rbp
 117              		.cfi_def_cfa_register 6
 118 0004 48897DF8 		movq	%rdi, -8(%rbp)
 119 0008 488975F0 		movq	%rsi, -16(%rbp)
 120              		.loc 2 147 0
GAS LISTING /tmp/ccvUPO8Q.s 			page 7


 121 000c 488B45F0 		movq	-16(%rbp), %rax
 122 0010 5D       		popq	%rbp
 123              		.cfi_def_cfa 7, 8
 124 0011 C3       		ret
 125              		.cfi_endproc
 126              	.LFE339:
 128              		.section	.text._ZdlPvS_,"axG",@progbits,_ZdlPvS_,comdat
 129              		.weak	_ZdlPvS_
 131              	_ZdlPvS_:
 132              	.LFB341:
 148:/usr/include/c++/6/new **** inline void* operator new[](std::size_t, void* __p) _GLIBCXX_USE_NOEXCEPT
 149:/usr/include/c++/6/new **** { return __p; }
 150:/usr/include/c++/6/new **** 
 151:/usr/include/c++/6/new **** // Default placement versions of operator delete.
 152:/usr/include/c++/6/new **** inline void operator delete  (void*, void*) _GLIBCXX_USE_NOEXCEPT { }
 133              		.loc 2 152 0
 134              		.cfi_startproc
 135 0000 55       		pushq	%rbp
 136              		.cfi_def_cfa_offset 16
 137              		.cfi_offset 6, -16
 138 0001 4889E5   		movq	%rsp, %rbp
 139              		.cfi_def_cfa_register 6
 140 0004 48897DF8 		movq	%rdi, -8(%rbp)
 141 0008 488975F0 		movq	%rsi, -16(%rbp)
 142              		.loc 2 152 0
 143 000c 90       		nop
 144 000d 5D       		popq	%rbp
 145              		.cfi_def_cfa 7, 8
 146 000e C3       		ret
 147              		.cfi_endproc
 148              	.LFE341:
 150              		.section	.rodata
 151 0001 000000   		.align 4
 154              	_ZN9__gnu_cxxL21__default_lock_policyE:
 155 0004 02000000 		.long	2
 156              		.section	.text._ZNSt9exceptionC2ERKS_,"axG",@progbits,_ZNSt9exceptionC5ERKS_,comdat
 157              		.align 2
 158              		.weak	_ZNSt9exceptionC2ERKS_
 160              	_ZNSt9exceptionC2ERKS_:
 161              	.LFB554:
  62:/usr/include/c++/6/exception ****   {
 162              		.loc 1 62 0
 163              		.cfi_startproc
 164 0000 55       		pushq	%rbp
 165              		.cfi_def_cfa_offset 16
 166              		.cfi_offset 6, -16
 167 0001 4889E5   		movq	%rsp, %rbp
 168              		.cfi_def_cfa_register 6
 169 0004 48897DF8 		movq	%rdi, -8(%rbp)
 170 0008 488975F0 		movq	%rsi, -16(%rbp)
 171              	.LBB5:
  62:/usr/include/c++/6/exception ****   {
 172              		.loc 1 62 0
 173 000c 488D1500 		leaq	16+_ZTVSt9exception(%rip), %rdx
 173      000000
 174 0013 488B45F8 		movq	-8(%rbp), %rax
 175 0017 488910   		movq	%rdx, (%rax)
GAS LISTING /tmp/ccvUPO8Q.s 			page 8


 176              	.LBE5:
 177 001a 90       		nop
 178 001b 5D       		popq	%rbp
 179              		.cfi_def_cfa 7, 8
 180 001c C3       		ret
 181              		.cfi_endproc
 182              	.LFE554:
 184              		.weak	_ZNSt9exceptionC1ERKS_
 185              		.set	_ZNSt9exceptionC1ERKS_,_ZNSt9exceptionC2ERKS_
 186              		.section	.rodata
 189              	_ZStL13allocator_arg:
 190 0008 00       		.zero	1
 193              	_ZStL6ignore:
 194 0009 00       		.zero	1
 195              		.section	.text._ZN5boost10error_infoINS_15throw_function_EPKcEC2ES3_,"axG",@progbits,_ZN5boost10er
 196              		.align 2
 197              		.weak	_ZN5boost10error_infoINS_15throw_function_EPKcEC2ES3_
 199              	_ZN5boost10error_infoINS_15throw_function_EPKcEC2ES3_:
 200              	.LFB1923:
 201              		.file 3 "/usr/include/boost/exception/exception.hpp"
   1:/usr/include/boost/exception/exception.hpp **** //Copyright (c) 2006-2009 Emil Dotchevski and Reverge Studios, Inc.
   2:/usr/include/boost/exception/exception.hpp **** 
   3:/usr/include/boost/exception/exception.hpp **** //Distributed under the Boost Software License, Version 1.0. (See accompanying
   4:/usr/include/boost/exception/exception.hpp **** //file LICENSE_1_0.txt or copy at http://www.boost.org/LICENSE_1_0.txt)
   5:/usr/include/boost/exception/exception.hpp **** 
   6:/usr/include/boost/exception/exception.hpp **** #ifndef UUID_274DA366004E11DCB1DDFE2E56D89593
   7:/usr/include/boost/exception/exception.hpp **** #define UUID_274DA366004E11DCB1DDFE2E56D89593
   8:/usr/include/boost/exception/exception.hpp **** #if (__GNUC__*100+__GNUC_MINOR__>301) && !defined(BOOST_EXCEPTION_ENABLE_WARNINGS)
   9:/usr/include/boost/exception/exception.hpp **** #pragma GCC system_header
  10:/usr/include/boost/exception/exception.hpp **** #endif
  11:/usr/include/boost/exception/exception.hpp **** #if defined(_MSC_VER) && !defined(BOOST_EXCEPTION_ENABLE_WARNINGS)
  12:/usr/include/boost/exception/exception.hpp **** #pragma warning(push,1)
  13:/usr/include/boost/exception/exception.hpp **** #endif
  14:/usr/include/boost/exception/exception.hpp **** 
  15:/usr/include/boost/exception/exception.hpp **** namespace
  16:/usr/include/boost/exception/exception.hpp **** boost
  17:/usr/include/boost/exception/exception.hpp ****     {
  18:/usr/include/boost/exception/exception.hpp ****     namespace
  19:/usr/include/boost/exception/exception.hpp ****     exception_detail
  20:/usr/include/boost/exception/exception.hpp ****         {
  21:/usr/include/boost/exception/exception.hpp ****         template <class T>
  22:/usr/include/boost/exception/exception.hpp ****         class
  23:/usr/include/boost/exception/exception.hpp ****         refcount_ptr
  24:/usr/include/boost/exception/exception.hpp ****             {
  25:/usr/include/boost/exception/exception.hpp ****             public:
  26:/usr/include/boost/exception/exception.hpp **** 
  27:/usr/include/boost/exception/exception.hpp ****             refcount_ptr():
  28:/usr/include/boost/exception/exception.hpp ****                 px_(0)
  29:/usr/include/boost/exception/exception.hpp ****                 {
  30:/usr/include/boost/exception/exception.hpp ****                 }
  31:/usr/include/boost/exception/exception.hpp **** 
  32:/usr/include/boost/exception/exception.hpp ****             ~refcount_ptr()
  33:/usr/include/boost/exception/exception.hpp ****                 {
  34:/usr/include/boost/exception/exception.hpp ****                 release();
  35:/usr/include/boost/exception/exception.hpp ****                 }
  36:/usr/include/boost/exception/exception.hpp **** 
  37:/usr/include/boost/exception/exception.hpp ****             refcount_ptr( refcount_ptr const & x ):
GAS LISTING /tmp/ccvUPO8Q.s 			page 9


  38:/usr/include/boost/exception/exception.hpp ****                 px_(x.px_)
  39:/usr/include/boost/exception/exception.hpp ****                 {
  40:/usr/include/boost/exception/exception.hpp ****                 add_ref();
  41:/usr/include/boost/exception/exception.hpp ****                 }
  42:/usr/include/boost/exception/exception.hpp **** 
  43:/usr/include/boost/exception/exception.hpp ****             refcount_ptr &
  44:/usr/include/boost/exception/exception.hpp ****             operator=( refcount_ptr const & x )
  45:/usr/include/boost/exception/exception.hpp ****                 {
  46:/usr/include/boost/exception/exception.hpp ****                 adopt(x.px_);
  47:/usr/include/boost/exception/exception.hpp ****                 return *this;
  48:/usr/include/boost/exception/exception.hpp ****                 }
  49:/usr/include/boost/exception/exception.hpp **** 
  50:/usr/include/boost/exception/exception.hpp ****             void
  51:/usr/include/boost/exception/exception.hpp ****             adopt( T * px )
  52:/usr/include/boost/exception/exception.hpp ****                 {
  53:/usr/include/boost/exception/exception.hpp ****                 release();
  54:/usr/include/boost/exception/exception.hpp ****                 px_=px;
  55:/usr/include/boost/exception/exception.hpp ****                 add_ref();
  56:/usr/include/boost/exception/exception.hpp ****                 }
  57:/usr/include/boost/exception/exception.hpp **** 
  58:/usr/include/boost/exception/exception.hpp ****             T *
  59:/usr/include/boost/exception/exception.hpp ****             get() const
  60:/usr/include/boost/exception/exception.hpp ****                 {
  61:/usr/include/boost/exception/exception.hpp ****                 return px_;
  62:/usr/include/boost/exception/exception.hpp ****                 }
  63:/usr/include/boost/exception/exception.hpp **** 
  64:/usr/include/boost/exception/exception.hpp ****             private:
  65:/usr/include/boost/exception/exception.hpp **** 
  66:/usr/include/boost/exception/exception.hpp ****             T * px_;
  67:/usr/include/boost/exception/exception.hpp **** 
  68:/usr/include/boost/exception/exception.hpp ****             void
  69:/usr/include/boost/exception/exception.hpp ****             add_ref()
  70:/usr/include/boost/exception/exception.hpp ****                 {
  71:/usr/include/boost/exception/exception.hpp ****                 if( px_ )
  72:/usr/include/boost/exception/exception.hpp ****                     px_->add_ref();
  73:/usr/include/boost/exception/exception.hpp ****                 }
  74:/usr/include/boost/exception/exception.hpp **** 
  75:/usr/include/boost/exception/exception.hpp ****             void
  76:/usr/include/boost/exception/exception.hpp ****             release()
  77:/usr/include/boost/exception/exception.hpp ****                 {
  78:/usr/include/boost/exception/exception.hpp ****                 if( px_ && px_->release() )
  79:/usr/include/boost/exception/exception.hpp ****                     px_=0;
  80:/usr/include/boost/exception/exception.hpp ****                 }
  81:/usr/include/boost/exception/exception.hpp ****             };
  82:/usr/include/boost/exception/exception.hpp ****         }
  83:/usr/include/boost/exception/exception.hpp **** 
  84:/usr/include/boost/exception/exception.hpp ****     ////////////////////////////////////////////////////////////////////////
  85:/usr/include/boost/exception/exception.hpp **** 
  86:/usr/include/boost/exception/exception.hpp ****     template <class Tag,class T>
  87:/usr/include/boost/exception/exception.hpp ****     class error_info;
  88:/usr/include/boost/exception/exception.hpp **** 
  89:/usr/include/boost/exception/exception.hpp ****     typedef error_info<struct throw_function_,char const *> throw_function;
  90:/usr/include/boost/exception/exception.hpp ****     typedef error_info<struct throw_file_,char const *> throw_file;
  91:/usr/include/boost/exception/exception.hpp ****     typedef error_info<struct throw_line_,int> throw_line;
  92:/usr/include/boost/exception/exception.hpp **** 
  93:/usr/include/boost/exception/exception.hpp ****     template <>
  94:/usr/include/boost/exception/exception.hpp ****     class
GAS LISTING /tmp/ccvUPO8Q.s 			page 10


  95:/usr/include/boost/exception/exception.hpp ****     error_info<throw_function_,char const *>
  96:/usr/include/boost/exception/exception.hpp ****         {
  97:/usr/include/boost/exception/exception.hpp ****         public:
  98:/usr/include/boost/exception/exception.hpp ****         typedef char const * value_type;
  99:/usr/include/boost/exception/exception.hpp ****         value_type v_;
 100:/usr/include/boost/exception/exception.hpp ****         explicit
 101:/usr/include/boost/exception/exception.hpp ****         error_info( value_type v ):
 202              		.loc 3 101 0
 203              		.cfi_startproc
 204 0000 55       		pushq	%rbp
 205              		.cfi_def_cfa_offset 16
 206              		.cfi_offset 6, -16
 207 0001 4889E5   		movq	%rsp, %rbp
 208              		.cfi_def_cfa_register 6
 209 0004 48897DF8 		movq	%rdi, -8(%rbp)
 210 0008 488975F0 		movq	%rsi, -16(%rbp)
 211              	.LBB6:
 102:/usr/include/boost/exception/exception.hpp ****             v_(v)
 212              		.loc 3 102 0
 213 000c 488B45F8 		movq	-8(%rbp), %rax
 214 0010 488B55F0 		movq	-16(%rbp), %rdx
 215 0014 488910   		movq	%rdx, (%rax)
 216              	.LBE6:
 103:/usr/include/boost/exception/exception.hpp ****             {
 104:/usr/include/boost/exception/exception.hpp ****             }
 217              		.loc 3 104 0
 218 0017 90       		nop
 219 0018 5D       		popq	%rbp
 220              		.cfi_def_cfa 7, 8
 221 0019 C3       		ret
 222              		.cfi_endproc
 223              	.LFE1923:
 225              		.weak	_ZN5boost10error_infoINS_15throw_function_EPKcEC1ES3_
 226              		.set	_ZN5boost10error_infoINS_15throw_function_EPKcEC1ES3_,_ZN5boost10error_infoINS_15throw_functi
 227              		.section	.text._ZN5boost10error_infoINS_11throw_file_EPKcEC2ES3_,"axG",@progbits,_ZN5boost10error_
 228              		.align 2
 229              		.weak	_ZN5boost10error_infoINS_11throw_file_EPKcEC2ES3_
 231              	_ZN5boost10error_infoINS_11throw_file_EPKcEC2ES3_:
 232              	.LFB1926:
 105:/usr/include/boost/exception/exception.hpp ****         };
 106:/usr/include/boost/exception/exception.hpp **** 
 107:/usr/include/boost/exception/exception.hpp ****     template <>
 108:/usr/include/boost/exception/exception.hpp ****     class
 109:/usr/include/boost/exception/exception.hpp ****     error_info<throw_file_,char const *>
 110:/usr/include/boost/exception/exception.hpp ****         {
 111:/usr/include/boost/exception/exception.hpp ****         public:
 112:/usr/include/boost/exception/exception.hpp ****         typedef char const * value_type;
 113:/usr/include/boost/exception/exception.hpp ****         value_type v_;
 114:/usr/include/boost/exception/exception.hpp ****         explicit
 115:/usr/include/boost/exception/exception.hpp ****         error_info( value_type v ):
 233              		.loc 3 115 0
 234              		.cfi_startproc
 235 0000 55       		pushq	%rbp
 236              		.cfi_def_cfa_offset 16
 237              		.cfi_offset 6, -16
 238 0001 4889E5   		movq	%rsp, %rbp
 239              		.cfi_def_cfa_register 6
GAS LISTING /tmp/ccvUPO8Q.s 			page 11


 240 0004 48897DF8 		movq	%rdi, -8(%rbp)
 241 0008 488975F0 		movq	%rsi, -16(%rbp)
 242              	.LBB7:
 116:/usr/include/boost/exception/exception.hpp ****             v_(v)
 243              		.loc 3 116 0
 244 000c 488B45F8 		movq	-8(%rbp), %rax
 245 0010 488B55F0 		movq	-16(%rbp), %rdx
 246 0014 488910   		movq	%rdx, (%rax)
 247              	.LBE7:
 117:/usr/include/boost/exception/exception.hpp ****             {
 118:/usr/include/boost/exception/exception.hpp ****             }
 248              		.loc 3 118 0
 249 0017 90       		nop
 250 0018 5D       		popq	%rbp
 251              		.cfi_def_cfa 7, 8
 252 0019 C3       		ret
 253              		.cfi_endproc
 254              	.LFE1926:
 256              		.weak	_ZN5boost10error_infoINS_11throw_file_EPKcEC1ES3_
 257              		.set	_ZN5boost10error_infoINS_11throw_file_EPKcEC1ES3_,_ZN5boost10error_infoINS_11throw_file_EPKcE
 258              		.section	.text._ZN5boost10error_infoINS_11throw_line_EiEC2Ei,"axG",@progbits,_ZN5boost10error_info
 259              		.align 2
 260              		.weak	_ZN5boost10error_infoINS_11throw_line_EiEC2Ei
 262              	_ZN5boost10error_infoINS_11throw_line_EiEC2Ei:
 263              	.LFB1929:
 119:/usr/include/boost/exception/exception.hpp ****         };
 120:/usr/include/boost/exception/exception.hpp **** 
 121:/usr/include/boost/exception/exception.hpp ****     template <>
 122:/usr/include/boost/exception/exception.hpp ****     class
 123:/usr/include/boost/exception/exception.hpp ****     error_info<throw_line_,int>
 124:/usr/include/boost/exception/exception.hpp ****         {
 125:/usr/include/boost/exception/exception.hpp ****         public:
 126:/usr/include/boost/exception/exception.hpp ****         typedef int value_type;
 127:/usr/include/boost/exception/exception.hpp ****         value_type v_;
 128:/usr/include/boost/exception/exception.hpp ****         explicit
 129:/usr/include/boost/exception/exception.hpp ****         error_info( value_type v ):
 264              		.loc 3 129 0
 265              		.cfi_startproc
 266 0000 55       		pushq	%rbp
 267              		.cfi_def_cfa_offset 16
 268              		.cfi_offset 6, -16
 269 0001 4889E5   		movq	%rsp, %rbp
 270              		.cfi_def_cfa_register 6
 271 0004 48897DF8 		movq	%rdi, -8(%rbp)
 272 0008 8975F4   		movl	%esi, -12(%rbp)
 273              	.LBB8:
 130:/usr/include/boost/exception/exception.hpp ****             v_(v)
 274              		.loc 3 130 0
 275 000b 488B45F8 		movq	-8(%rbp), %rax
 276 000f 8B55F4   		movl	-12(%rbp), %edx
 277 0012 8910     		movl	%edx, (%rax)
 278              	.LBE8:
 131:/usr/include/boost/exception/exception.hpp ****             {
 132:/usr/include/boost/exception/exception.hpp ****             }
 279              		.loc 3 132 0
 280 0014 90       		nop
 281 0015 5D       		popq	%rbp
GAS LISTING /tmp/ccvUPO8Q.s 			page 12


 282              		.cfi_def_cfa 7, 8
 283 0016 C3       		ret
 284              		.cfi_endproc
 285              	.LFE1929:
 287              		.weak	_ZN5boost10error_infoINS_11throw_line_EiEC1Ei
 288              		.set	_ZN5boost10error_infoINS_11throw_line_EiEC1Ei,_ZN5boost10error_infoINS_11throw_line_EiEC2Ei
 289              		.section	.text._ZN5boost9exceptionC2Ev,"axG",@progbits,_ZN5boost9exceptionC5Ev,comdat
 290              		.align 2
 291              		.weak	_ZN5boost9exceptionC2Ev
 293              	_ZN5boost9exceptionC2Ev:
 294              	.LFB1935:
 133:/usr/include/boost/exception/exception.hpp ****         };
 134:/usr/include/boost/exception/exception.hpp **** 
 135:/usr/include/boost/exception/exception.hpp **** #if defined(__GNUC__)
 136:/usr/include/boost/exception/exception.hpp **** # if (__GNUC__ == 4 && __GNUC_MINOR__ >= 1) || (__GNUC__ > 4)
 137:/usr/include/boost/exception/exception.hpp **** #  pragma GCC visibility push (default)
 138:/usr/include/boost/exception/exception.hpp **** # endif
 139:/usr/include/boost/exception/exception.hpp **** #endif
 140:/usr/include/boost/exception/exception.hpp ****     class exception;
 141:/usr/include/boost/exception/exception.hpp **** #if defined(__GNUC__)
 142:/usr/include/boost/exception/exception.hpp **** # if (__GNUC__ == 4 && __GNUC_MINOR__ >= 1) || (__GNUC__ > 4)
 143:/usr/include/boost/exception/exception.hpp **** #  pragma GCC visibility pop
 144:/usr/include/boost/exception/exception.hpp **** # endif
 145:/usr/include/boost/exception/exception.hpp **** #endif
 146:/usr/include/boost/exception/exception.hpp **** 
 147:/usr/include/boost/exception/exception.hpp ****     template <class T>
 148:/usr/include/boost/exception/exception.hpp ****     class shared_ptr;
 149:/usr/include/boost/exception/exception.hpp **** 
 150:/usr/include/boost/exception/exception.hpp ****     namespace
 151:/usr/include/boost/exception/exception.hpp ****     exception_detail
 152:/usr/include/boost/exception/exception.hpp ****         {
 153:/usr/include/boost/exception/exception.hpp ****         class error_info_base;
 154:/usr/include/boost/exception/exception.hpp ****         struct type_info_;
 155:/usr/include/boost/exception/exception.hpp **** 
 156:/usr/include/boost/exception/exception.hpp ****         struct
 157:/usr/include/boost/exception/exception.hpp ****         error_info_container
 158:/usr/include/boost/exception/exception.hpp ****             {
 159:/usr/include/boost/exception/exception.hpp ****             virtual char const * diagnostic_information( char const * ) const = 0;
 160:/usr/include/boost/exception/exception.hpp ****             virtual shared_ptr<error_info_base> get( type_info_ const & ) const = 0;
 161:/usr/include/boost/exception/exception.hpp ****             virtual void set( shared_ptr<error_info_base> const &, type_info_ const & ) = 0;
 162:/usr/include/boost/exception/exception.hpp ****             virtual void add_ref() const = 0;
 163:/usr/include/boost/exception/exception.hpp ****             virtual bool release() const = 0;
 164:/usr/include/boost/exception/exception.hpp ****             virtual refcount_ptr<exception_detail::error_info_container> clone() const = 0;
 165:/usr/include/boost/exception/exception.hpp **** 
 166:/usr/include/boost/exception/exception.hpp ****             protected:
 167:/usr/include/boost/exception/exception.hpp **** 
 168:/usr/include/boost/exception/exception.hpp ****             ~error_info_container() throw()
 169:/usr/include/boost/exception/exception.hpp ****                 {
 170:/usr/include/boost/exception/exception.hpp ****                 }
 171:/usr/include/boost/exception/exception.hpp ****             };
 172:/usr/include/boost/exception/exception.hpp **** 
 173:/usr/include/boost/exception/exception.hpp ****         template <class>
 174:/usr/include/boost/exception/exception.hpp ****         struct get_info;
 175:/usr/include/boost/exception/exception.hpp **** 
 176:/usr/include/boost/exception/exception.hpp ****         template <>
 177:/usr/include/boost/exception/exception.hpp ****         struct get_info<throw_function>;
 178:/usr/include/boost/exception/exception.hpp **** 
GAS LISTING /tmp/ccvUPO8Q.s 			page 13


 179:/usr/include/boost/exception/exception.hpp ****         template <>
 180:/usr/include/boost/exception/exception.hpp ****         struct get_info<throw_file>;
 181:/usr/include/boost/exception/exception.hpp **** 
 182:/usr/include/boost/exception/exception.hpp ****         template <>
 183:/usr/include/boost/exception/exception.hpp ****         struct get_info<throw_line>;
 184:/usr/include/boost/exception/exception.hpp **** 
 185:/usr/include/boost/exception/exception.hpp ****         template <class>
 186:/usr/include/boost/exception/exception.hpp ****         struct set_info_rv;
 187:/usr/include/boost/exception/exception.hpp **** 
 188:/usr/include/boost/exception/exception.hpp ****         template <>
 189:/usr/include/boost/exception/exception.hpp ****         struct set_info_rv<throw_function>;
 190:/usr/include/boost/exception/exception.hpp **** 
 191:/usr/include/boost/exception/exception.hpp ****         template <>
 192:/usr/include/boost/exception/exception.hpp ****         struct set_info_rv<throw_file>;
 193:/usr/include/boost/exception/exception.hpp **** 
 194:/usr/include/boost/exception/exception.hpp ****         template <>
 195:/usr/include/boost/exception/exception.hpp ****         struct set_info_rv<throw_line>;
 196:/usr/include/boost/exception/exception.hpp **** 
 197:/usr/include/boost/exception/exception.hpp ****         char const * get_diagnostic_information( exception const &, char const * );
 198:/usr/include/boost/exception/exception.hpp **** 
 199:/usr/include/boost/exception/exception.hpp ****         void copy_boost_exception( exception *, exception const * );
 200:/usr/include/boost/exception/exception.hpp **** 
 201:/usr/include/boost/exception/exception.hpp ****         template <class E,class Tag,class T>
 202:/usr/include/boost/exception/exception.hpp ****         E const & set_info( E const &, error_info<Tag,T> const & );
 203:/usr/include/boost/exception/exception.hpp **** 
 204:/usr/include/boost/exception/exception.hpp ****         template <class E>
 205:/usr/include/boost/exception/exception.hpp ****         E const & set_info( E const &, throw_function const & );
 206:/usr/include/boost/exception/exception.hpp **** 
 207:/usr/include/boost/exception/exception.hpp ****         template <class E>
 208:/usr/include/boost/exception/exception.hpp ****         E const & set_info( E const &, throw_file const & );
 209:/usr/include/boost/exception/exception.hpp **** 
 210:/usr/include/boost/exception/exception.hpp ****         template <class E>
 211:/usr/include/boost/exception/exception.hpp ****         E const & set_info( E const &, throw_line const & );
 212:/usr/include/boost/exception/exception.hpp ****         }
 213:/usr/include/boost/exception/exception.hpp **** 
 214:/usr/include/boost/exception/exception.hpp **** #if defined(__GNUC__)
 215:/usr/include/boost/exception/exception.hpp **** # if (__GNUC__ == 4 && __GNUC_MINOR__ >= 1) || (__GNUC__ > 4)
 216:/usr/include/boost/exception/exception.hpp **** #  pragma GCC visibility push (default)
 217:/usr/include/boost/exception/exception.hpp **** # endif
 218:/usr/include/boost/exception/exception.hpp **** #endif
 219:/usr/include/boost/exception/exception.hpp ****     class
 220:/usr/include/boost/exception/exception.hpp ****     exception
 221:/usr/include/boost/exception/exception.hpp ****         {
 222:/usr/include/boost/exception/exception.hpp ****         //<N3757>
 223:/usr/include/boost/exception/exception.hpp ****         public:
 224:/usr/include/boost/exception/exception.hpp ****         template <class Tag> void set( typename Tag::type const & );
 225:/usr/include/boost/exception/exception.hpp ****         template <class Tag> typename Tag::type const * get() const;
 226:/usr/include/boost/exception/exception.hpp ****         //</N3757>
 227:/usr/include/boost/exception/exception.hpp **** 
 228:/usr/include/boost/exception/exception.hpp ****         protected:
 229:/usr/include/boost/exception/exception.hpp **** 
 230:/usr/include/boost/exception/exception.hpp ****         exception():
 295              		.loc 3 230 0
 296              		.cfi_startproc
 297 0000 55       		pushq	%rbp
 298              		.cfi_def_cfa_offset 16
 299              		.cfi_offset 6, -16
GAS LISTING /tmp/ccvUPO8Q.s 			page 14


 300 0001 4889E5   		movq	%rsp, %rbp
 301              		.cfi_def_cfa_register 6
 302 0004 4883EC10 		subq	$16, %rsp
 303 0008 48897DF8 		movq	%rdi, -8(%rbp)
 304              	.LBB9:
 231:/usr/include/boost/exception/exception.hpp ****             throw_function_(0),
 232:/usr/include/boost/exception/exception.hpp ****             throw_file_(0),
 233:/usr/include/boost/exception/exception.hpp ****             throw_line_(-1)
 305              		.loc 3 233 0
 306 000c 488D1500 		leaq	16+_ZTVN5boost9exceptionE(%rip), %rdx
 306      000000
 307 0013 488B45F8 		movq	-8(%rbp), %rax
 308 0017 488910   		movq	%rdx, (%rax)
 309 001a 488B45F8 		movq	-8(%rbp), %rax
 310 001e 4883C008 		addq	$8, %rax
 311 0022 4889C7   		movq	%rax, %rdi
 312 0025 E8000000 		call	_ZN5boost16exception_detail12refcount_ptrINS0_20error_info_containerEEC1Ev
 312      00
 313 002a 488B45F8 		movq	-8(%rbp), %rax
 314 002e 48C74010 		movq	$0, 16(%rax)
 314      00000000 
 315 0036 488B45F8 		movq	-8(%rbp), %rax
 316 003a 48C74018 		movq	$0, 24(%rax)
 316      00000000 
 317 0042 488B45F8 		movq	-8(%rbp), %rax
 318 0046 C74020FF 		movl	$-1, 32(%rax)
 318      FFFFFF
 319              	.LBE9:
 234:/usr/include/boost/exception/exception.hpp ****             {
 235:/usr/include/boost/exception/exception.hpp ****             }
 320              		.loc 3 235 0
 321 004d 90       		nop
 322 004e C9       		leave
 323              		.cfi_def_cfa 7, 8
 324 004f C3       		ret
 325              		.cfi_endproc
 326              	.LFE1935:
 328              		.weak	_ZN5boost9exceptionC1Ev
 329              		.set	_ZN5boost9exceptionC1Ev,_ZN5boost9exceptionC2Ev
 330              		.section	.text._ZN5boost9exceptionD2Ev,"axG",@progbits,_ZN5boost9exceptionD5Ev,comdat
 331              		.align 2
 332              		.weak	_ZN5boost9exceptionD2Ev
 334              	_ZN5boost9exceptionD2Ev:
 335              	.LFB1938:
 236:/usr/include/boost/exception/exception.hpp **** 
 237:/usr/include/boost/exception/exception.hpp **** #ifdef __HP_aCC
 238:/usr/include/boost/exception/exception.hpp ****         //On HP aCC, this protected copy constructor prevents throwing boost::exception.
 239:/usr/include/boost/exception/exception.hpp ****         //On all other platforms, the same effect is achieved by the pure virtual destructor.
 240:/usr/include/boost/exception/exception.hpp ****         exception( exception const & x ) throw():
 241:/usr/include/boost/exception/exception.hpp ****             data_(x.data_),
 242:/usr/include/boost/exception/exception.hpp ****             throw_function_(x.throw_function_),
 243:/usr/include/boost/exception/exception.hpp ****             throw_file_(x.throw_file_),
 244:/usr/include/boost/exception/exception.hpp ****             throw_line_(x.throw_line_)
 245:/usr/include/boost/exception/exception.hpp ****             {
 246:/usr/include/boost/exception/exception.hpp ****             }
 247:/usr/include/boost/exception/exception.hpp **** #endif
 248:/usr/include/boost/exception/exception.hpp **** 
GAS LISTING /tmp/ccvUPO8Q.s 			page 15


 249:/usr/include/boost/exception/exception.hpp ****         virtual ~exception() throw()
 250:/usr/include/boost/exception/exception.hpp **** #ifndef __HP_aCC
 251:/usr/include/boost/exception/exception.hpp ****             = 0 //Workaround for HP aCC, =0 incorrectly leads to link errors.
 252:/usr/include/boost/exception/exception.hpp **** #endif
 253:/usr/include/boost/exception/exception.hpp ****             ;
 254:/usr/include/boost/exception/exception.hpp **** 
 255:/usr/include/boost/exception/exception.hpp **** #if (defined(__MWERKS__) && __MWERKS__<=0x3207) || (defined(_MSC_VER) && _MSC_VER<=1310)
 256:/usr/include/boost/exception/exception.hpp ****         public:
 257:/usr/include/boost/exception/exception.hpp **** #else
 258:/usr/include/boost/exception/exception.hpp ****         private:
 259:/usr/include/boost/exception/exception.hpp **** 
 260:/usr/include/boost/exception/exception.hpp ****         template <class E>
 261:/usr/include/boost/exception/exception.hpp ****         friend E const & exception_detail::set_info( E const &, throw_function const & );
 262:/usr/include/boost/exception/exception.hpp **** 
 263:/usr/include/boost/exception/exception.hpp ****         template <class E>
 264:/usr/include/boost/exception/exception.hpp ****         friend E const & exception_detail::set_info( E const &, throw_file const & );
 265:/usr/include/boost/exception/exception.hpp **** 
 266:/usr/include/boost/exception/exception.hpp ****         template <class E>
 267:/usr/include/boost/exception/exception.hpp ****         friend E const & exception_detail::set_info( E const &, throw_line const & );
 268:/usr/include/boost/exception/exception.hpp **** 
 269:/usr/include/boost/exception/exception.hpp ****         template <class E,class Tag,class T>
 270:/usr/include/boost/exception/exception.hpp ****         friend E const & exception_detail::set_info( E const &, error_info<Tag,T> const & );
 271:/usr/include/boost/exception/exception.hpp **** 
 272:/usr/include/boost/exception/exception.hpp ****         friend char const * exception_detail::get_diagnostic_information( exception const &, char c
 273:/usr/include/boost/exception/exception.hpp **** 
 274:/usr/include/boost/exception/exception.hpp ****         template <class>
 275:/usr/include/boost/exception/exception.hpp ****         friend struct exception_detail::get_info;
 276:/usr/include/boost/exception/exception.hpp ****         friend struct exception_detail::get_info<throw_function>;
 277:/usr/include/boost/exception/exception.hpp ****         friend struct exception_detail::get_info<throw_file>;
 278:/usr/include/boost/exception/exception.hpp ****         friend struct exception_detail::get_info<throw_line>;
 279:/usr/include/boost/exception/exception.hpp ****         template <class>
 280:/usr/include/boost/exception/exception.hpp ****         friend struct exception_detail::set_info_rv;
 281:/usr/include/boost/exception/exception.hpp ****         friend struct exception_detail::set_info_rv<throw_function>;
 282:/usr/include/boost/exception/exception.hpp ****         friend struct exception_detail::set_info_rv<throw_file>;
 283:/usr/include/boost/exception/exception.hpp ****         friend struct exception_detail::set_info_rv<throw_line>;
 284:/usr/include/boost/exception/exception.hpp ****         friend void exception_detail::copy_boost_exception( exception *, exception const * );
 285:/usr/include/boost/exception/exception.hpp **** #endif
 286:/usr/include/boost/exception/exception.hpp ****         mutable exception_detail::refcount_ptr<exception_detail::error_info_container> data_;
 287:/usr/include/boost/exception/exception.hpp ****         mutable char const * throw_function_;
 288:/usr/include/boost/exception/exception.hpp ****         mutable char const * throw_file_;
 289:/usr/include/boost/exception/exception.hpp ****         mutable int throw_line_;
 290:/usr/include/boost/exception/exception.hpp ****         };
 291:/usr/include/boost/exception/exception.hpp **** #if defined(__GNUC__)
 292:/usr/include/boost/exception/exception.hpp **** # if (__GNUC__ == 4 && __GNUC_MINOR__ >= 1) || (__GNUC__ > 4)
 293:/usr/include/boost/exception/exception.hpp **** #  pragma GCC visibility pop
 294:/usr/include/boost/exception/exception.hpp **** # endif
 295:/usr/include/boost/exception/exception.hpp **** #endif
 296:/usr/include/boost/exception/exception.hpp **** 
 297:/usr/include/boost/exception/exception.hpp ****     inline
 298:/usr/include/boost/exception/exception.hpp ****     exception::
 336              		.loc 3 298 0
 337              		.cfi_startproc
 338 0000 55       		pushq	%rbp
 339              		.cfi_def_cfa_offset 16
 340              		.cfi_offset 6, -16
 341 0001 4889E5   		movq	%rsp, %rbp
 342              		.cfi_def_cfa_register 6
GAS LISTING /tmp/ccvUPO8Q.s 			page 16


 343 0004 4883EC10 		subq	$16, %rsp
 344 0008 48897DF8 		movq	%rdi, -8(%rbp)
 345              	.LBB10:
 299:/usr/include/boost/exception/exception.hpp ****     ~exception() throw()
 346              		.loc 3 299 0
 347 000c 488D1500 		leaq	16+_ZTVN5boost9exceptionE(%rip), %rdx
 347      000000
 348 0013 488B45F8 		movq	-8(%rbp), %rax
 349 0017 488910   		movq	%rdx, (%rax)
 350 001a 488B45F8 		movq	-8(%rbp), %rax
 351 001e 4883C008 		addq	$8, %rax
 352 0022 4889C7   		movq	%rax, %rdi
 353 0025 E8000000 		call	_ZN5boost16exception_detail12refcount_ptrINS0_20error_info_containerEED1Ev
 353      00
 354              	.LBE10:
 300:/usr/include/boost/exception/exception.hpp ****         {
 301:/usr/include/boost/exception/exception.hpp ****         }
 355              		.loc 3 301 0
 356 002a 90       		nop
 357 002b C9       		leave
 358              		.cfi_def_cfa 7, 8
 359 002c C3       		ret
 360              		.cfi_endproc
 361              	.LFE1938:
 363              		.weak	_ZN5boost9exceptionD1Ev
 364              		.set	_ZN5boost9exceptionD1Ev,_ZN5boost9exceptionD2Ev
 365              		.section	.text._ZN5boost9exceptionD0Ev,"axG",@progbits,_ZN5boost9exceptionD5Ev,comdat
 366              		.align 2
 367              		.weak	_ZN5boost9exceptionD0Ev
 369              	_ZN5boost9exceptionD0Ev:
 370              	.LFB1940:
 298:/usr/include/boost/exception/exception.hpp ****     ~exception() throw()
 371              		.loc 3 298 0
 372              		.cfi_startproc
 373 0000 55       		pushq	%rbp
 374              		.cfi_def_cfa_offset 16
 375              		.cfi_offset 6, -16
 376 0001 4889E5   		movq	%rsp, %rbp
 377              		.cfi_def_cfa_register 6
 378 0004 4883EC10 		subq	$16, %rsp
 379 0008 48897DF8 		movq	%rdi, -8(%rbp)
 380              		.loc 3 301 0
 381 000c 488B45F8 		movq	-8(%rbp), %rax
 382 0010 4889C7   		movq	%rax, %rdi
 383 0013 E8000000 		call	_ZN5boost9exceptionD1Ev
 383      00
 384 0018 488B45F8 		movq	-8(%rbp), %rax
 385 001c BE280000 		movl	$40, %esi
 385      00
 386 0021 4889C7   		movq	%rax, %rdi
 387 0024 E8000000 		call	_ZdlPvm@PLT
 387      00
 388 0029 C9       		leave
 389              		.cfi_def_cfa 7, 8
 390 002a C3       		ret
 391              		.cfi_endproc
 392              	.LFE1940:
GAS LISTING /tmp/ccvUPO8Q.s 			page 17


 394              		.section	.text._ZN5boost16exception_detail10clone_baseD2Ev,"axG",@progbits,_ZN5boost16exception_de
 395              		.align 2
 396              		.weak	_ZN5boost16exception_detail10clone_baseD2Ev
 398              	_ZN5boost16exception_detail10clone_baseD2Ev:
 399              	.LFB1948:
 302:/usr/include/boost/exception/exception.hpp **** 
 303:/usr/include/boost/exception/exception.hpp ****     namespace
 304:/usr/include/boost/exception/exception.hpp ****     exception_detail
 305:/usr/include/boost/exception/exception.hpp ****         {
 306:/usr/include/boost/exception/exception.hpp ****         template <class E>
 307:/usr/include/boost/exception/exception.hpp ****         E const &
 308:/usr/include/boost/exception/exception.hpp ****         set_info( E const & x, throw_function const & y )
 309:/usr/include/boost/exception/exception.hpp ****             {
 310:/usr/include/boost/exception/exception.hpp ****             x.throw_function_=y.v_;
 311:/usr/include/boost/exception/exception.hpp ****             return x;
 312:/usr/include/boost/exception/exception.hpp ****             }
 313:/usr/include/boost/exception/exception.hpp **** 
 314:/usr/include/boost/exception/exception.hpp ****         template <class E>
 315:/usr/include/boost/exception/exception.hpp ****         E const &
 316:/usr/include/boost/exception/exception.hpp ****         set_info( E const & x, throw_file const & y )
 317:/usr/include/boost/exception/exception.hpp ****             {
 318:/usr/include/boost/exception/exception.hpp ****             x.throw_file_=y.v_;
 319:/usr/include/boost/exception/exception.hpp ****             return x;
 320:/usr/include/boost/exception/exception.hpp ****             }
 321:/usr/include/boost/exception/exception.hpp **** 
 322:/usr/include/boost/exception/exception.hpp ****         template <class E>
 323:/usr/include/boost/exception/exception.hpp ****         E const &
 324:/usr/include/boost/exception/exception.hpp ****         set_info( E const & x, throw_line const & y )
 325:/usr/include/boost/exception/exception.hpp ****             {
 326:/usr/include/boost/exception/exception.hpp ****             x.throw_line_=y.v_;
 327:/usr/include/boost/exception/exception.hpp ****             return x;
 328:/usr/include/boost/exception/exception.hpp ****             }
 329:/usr/include/boost/exception/exception.hpp ****         }
 330:/usr/include/boost/exception/exception.hpp **** 
 331:/usr/include/boost/exception/exception.hpp ****     ////////////////////////////////////////////////////////////////////////
 332:/usr/include/boost/exception/exception.hpp **** 
 333:/usr/include/boost/exception/exception.hpp ****     namespace
 334:/usr/include/boost/exception/exception.hpp ****     exception_detail
 335:/usr/include/boost/exception/exception.hpp ****         {
 336:/usr/include/boost/exception/exception.hpp **** #if defined(__GNUC__)
 337:/usr/include/boost/exception/exception.hpp **** # if (__GNUC__ == 4 && __GNUC_MINOR__ >= 1) || (__GNUC__ > 4)
 338:/usr/include/boost/exception/exception.hpp **** #  pragma GCC visibility push (default)
 339:/usr/include/boost/exception/exception.hpp **** # endif
 340:/usr/include/boost/exception/exception.hpp **** #endif
 341:/usr/include/boost/exception/exception.hpp ****         template <class T>
 342:/usr/include/boost/exception/exception.hpp ****         struct
 343:/usr/include/boost/exception/exception.hpp ****         error_info_injector:
 344:/usr/include/boost/exception/exception.hpp ****             public T,
 345:/usr/include/boost/exception/exception.hpp ****             public exception
 346:/usr/include/boost/exception/exception.hpp ****             {
 347:/usr/include/boost/exception/exception.hpp ****             explicit
 348:/usr/include/boost/exception/exception.hpp ****             error_info_injector( T const & x ):
 349:/usr/include/boost/exception/exception.hpp ****                 T(x)
 350:/usr/include/boost/exception/exception.hpp ****                 {
 351:/usr/include/boost/exception/exception.hpp ****                 }
 352:/usr/include/boost/exception/exception.hpp **** 
 353:/usr/include/boost/exception/exception.hpp ****             ~error_info_injector() throw()
GAS LISTING /tmp/ccvUPO8Q.s 			page 18


 354:/usr/include/boost/exception/exception.hpp ****                 {
 355:/usr/include/boost/exception/exception.hpp ****                 }
 356:/usr/include/boost/exception/exception.hpp ****             };
 357:/usr/include/boost/exception/exception.hpp **** #if defined(__GNUC__)
 358:/usr/include/boost/exception/exception.hpp **** # if (__GNUC__ == 4 && __GNUC_MINOR__ >= 1) || (__GNUC__ > 4)
 359:/usr/include/boost/exception/exception.hpp **** #  pragma GCC visibility pop
 360:/usr/include/boost/exception/exception.hpp **** # endif
 361:/usr/include/boost/exception/exception.hpp **** #endif
 362:/usr/include/boost/exception/exception.hpp **** 
 363:/usr/include/boost/exception/exception.hpp ****         struct large_size { char c[256]; };
 364:/usr/include/boost/exception/exception.hpp ****         large_size dispatch_boost_exception( exception const * );
 365:/usr/include/boost/exception/exception.hpp **** 
 366:/usr/include/boost/exception/exception.hpp ****         struct small_size { };
 367:/usr/include/boost/exception/exception.hpp ****         small_size dispatch_boost_exception( void const * );
 368:/usr/include/boost/exception/exception.hpp **** 
 369:/usr/include/boost/exception/exception.hpp ****         template <class,int>
 370:/usr/include/boost/exception/exception.hpp ****         struct enable_error_info_helper;
 371:/usr/include/boost/exception/exception.hpp **** 
 372:/usr/include/boost/exception/exception.hpp ****         template <class T>
 373:/usr/include/boost/exception/exception.hpp ****         struct
 374:/usr/include/boost/exception/exception.hpp ****         enable_error_info_helper<T,sizeof(large_size)>
 375:/usr/include/boost/exception/exception.hpp ****             {
 376:/usr/include/boost/exception/exception.hpp ****             typedef T type;
 377:/usr/include/boost/exception/exception.hpp ****             };
 378:/usr/include/boost/exception/exception.hpp **** 
 379:/usr/include/boost/exception/exception.hpp ****         template <class T>
 380:/usr/include/boost/exception/exception.hpp ****         struct
 381:/usr/include/boost/exception/exception.hpp ****         enable_error_info_helper<T,sizeof(small_size)>
 382:/usr/include/boost/exception/exception.hpp ****             {
 383:/usr/include/boost/exception/exception.hpp ****             typedef error_info_injector<T> type;
 384:/usr/include/boost/exception/exception.hpp ****             };
 385:/usr/include/boost/exception/exception.hpp **** 
 386:/usr/include/boost/exception/exception.hpp ****         template <class T>
 387:/usr/include/boost/exception/exception.hpp ****         struct
 388:/usr/include/boost/exception/exception.hpp ****         enable_error_info_return_type
 389:/usr/include/boost/exception/exception.hpp ****             {
 390:/usr/include/boost/exception/exception.hpp ****             typedef typename enable_error_info_helper<T,sizeof(exception_detail::dispatch_boost_exc
 391:/usr/include/boost/exception/exception.hpp ****             };
 392:/usr/include/boost/exception/exception.hpp ****         }
 393:/usr/include/boost/exception/exception.hpp **** 
 394:/usr/include/boost/exception/exception.hpp ****     template <class T>
 395:/usr/include/boost/exception/exception.hpp ****     inline
 396:/usr/include/boost/exception/exception.hpp ****     typename
 397:/usr/include/boost/exception/exception.hpp ****     exception_detail::enable_error_info_return_type<T>::type
 398:/usr/include/boost/exception/exception.hpp ****     enable_error_info( T const & x )
 399:/usr/include/boost/exception/exception.hpp ****         {
 400:/usr/include/boost/exception/exception.hpp ****         typedef typename exception_detail::enable_error_info_return_type<T>::type rt;
 401:/usr/include/boost/exception/exception.hpp ****         return rt(x);
 402:/usr/include/boost/exception/exception.hpp ****         }
 403:/usr/include/boost/exception/exception.hpp **** 
 404:/usr/include/boost/exception/exception.hpp ****     ////////////////////////////////////////////////////////////////////////
 405:/usr/include/boost/exception/exception.hpp **** 
 406:/usr/include/boost/exception/exception.hpp ****     namespace
 407:/usr/include/boost/exception/exception.hpp ****     exception_detail
 408:/usr/include/boost/exception/exception.hpp ****         {
 409:/usr/include/boost/exception/exception.hpp **** #if defined(__GNUC__)
 410:/usr/include/boost/exception/exception.hpp **** # if (__GNUC__ == 4 && __GNUC_MINOR__ >= 1) || (__GNUC__ > 4)
GAS LISTING /tmp/ccvUPO8Q.s 			page 19


 411:/usr/include/boost/exception/exception.hpp **** #  pragma GCC visibility push (default)
 412:/usr/include/boost/exception/exception.hpp **** # endif
 413:/usr/include/boost/exception/exception.hpp **** #endif
 414:/usr/include/boost/exception/exception.hpp ****         class
 415:/usr/include/boost/exception/exception.hpp ****         clone_base
 416:/usr/include/boost/exception/exception.hpp ****             {
 417:/usr/include/boost/exception/exception.hpp ****             public:
 418:/usr/include/boost/exception/exception.hpp **** 
 419:/usr/include/boost/exception/exception.hpp ****             virtual clone_base const * clone() const = 0;
 420:/usr/include/boost/exception/exception.hpp ****             virtual void rethrow() const = 0;
 421:/usr/include/boost/exception/exception.hpp **** 
 422:/usr/include/boost/exception/exception.hpp ****             virtual
 423:/usr/include/boost/exception/exception.hpp ****             ~clone_base() throw()
 400              		.loc 3 423 0
 401              		.cfi_startproc
 402 0000 55       		pushq	%rbp
 403              		.cfi_def_cfa_offset 16
 404              		.cfi_offset 6, -16
 405 0001 4889E5   		movq	%rsp, %rbp
 406              		.cfi_def_cfa_register 6
 407 0004 48897DF8 		movq	%rdi, -8(%rbp)
 408              	.LBB11:
 424:/usr/include/boost/exception/exception.hpp ****                 {
 409              		.loc 3 424 0
 410 0008 488D1500 		leaq	16+_ZTVN5boost16exception_detail10clone_baseE(%rip), %rdx
 410      000000
 411 000f 488B45F8 		movq	-8(%rbp), %rax
 412 0013 488910   		movq	%rdx, (%rax)
 413              	.LBE11:
 425:/usr/include/boost/exception/exception.hpp ****                 }
 414              		.loc 3 425 0
 415 0016 90       		nop
 416 0017 5D       		popq	%rbp
 417              		.cfi_def_cfa 7, 8
 418 0018 C3       		ret
 419              		.cfi_endproc
 420              	.LFE1948:
 422              		.weak	_ZN5boost16exception_detail10clone_baseD1Ev
 423              		.set	_ZN5boost16exception_detail10clone_baseD1Ev,_ZN5boost16exception_detail10clone_baseD2Ev
 424              		.section	.text._ZN5boost16exception_detail10clone_baseD0Ev,"axG",@progbits,_ZN5boost16exception_de
 425              		.align 2
 426              		.weak	_ZN5boost16exception_detail10clone_baseD0Ev
 428              	_ZN5boost16exception_detail10clone_baseD0Ev:
 429              	.LFB1950:
 423:/usr/include/boost/exception/exception.hpp ****                 {
 430              		.loc 3 423 0
 431              		.cfi_startproc
 432 0000 55       		pushq	%rbp
 433              		.cfi_def_cfa_offset 16
 434              		.cfi_offset 6, -16
 435 0001 4889E5   		movq	%rsp, %rbp
 436              		.cfi_def_cfa_register 6
 437 0004 4883EC10 		subq	$16, %rsp
 438 0008 48897DF8 		movq	%rdi, -8(%rbp)
 439              		.loc 3 425 0
 440 000c 488B45F8 		movq	-8(%rbp), %rax
 441 0010 4889C7   		movq	%rax, %rdi
GAS LISTING /tmp/ccvUPO8Q.s 			page 20


 442 0013 E8000000 		call	_ZN5boost16exception_detail10clone_baseD1Ev
 442      00
 443 0018 488B45F8 		movq	-8(%rbp), %rax
 444 001c BE080000 		movl	$8, %esi
 444      00
 445 0021 4889C7   		movq	%rax, %rdi
 446 0024 E8000000 		call	_ZdlPvm@PLT
 446      00
 447 0029 C9       		leave
 448              		.cfi_def_cfa 7, 8
 449 002a C3       		ret
 450              		.cfi_endproc
 451              	.LFE1950:
 453              		.section	.text._ZN5boost16exception_detail20copy_boost_exceptionEPNS_9exceptionEPKS1_,"axG",@progb
 454              		.weak	_ZN5boost16exception_detail20copy_boost_exceptionEPNS_9exceptionEPKS1_
 456              	_ZN5boost16exception_detail20copy_boost_exceptionEPNS_9exceptionEPKS1_:
 457              	.LFB1951:
 426:/usr/include/boost/exception/exception.hpp ****             };
 427:/usr/include/boost/exception/exception.hpp **** #if defined(__GNUC__)
 428:/usr/include/boost/exception/exception.hpp **** # if (__GNUC__ == 4 && __GNUC_MINOR__ >= 1) || (__GNUC__ > 4)
 429:/usr/include/boost/exception/exception.hpp **** #  pragma GCC visibility pop
 430:/usr/include/boost/exception/exception.hpp **** # endif
 431:/usr/include/boost/exception/exception.hpp **** #endif
 432:/usr/include/boost/exception/exception.hpp **** 
 433:/usr/include/boost/exception/exception.hpp ****         inline
 434:/usr/include/boost/exception/exception.hpp ****         void
 435:/usr/include/boost/exception/exception.hpp ****         copy_boost_exception( exception * a, exception const * b )
 436:/usr/include/boost/exception/exception.hpp ****             {
 458              		.loc 3 436 0
 459              		.cfi_startproc
 460              		.cfi_personality 0x9b,DW.ref.__gxx_personality_v0
 461              		.cfi_lsda 0x1b,.LLSDA1951
 462 0000 55       		pushq	%rbp
 463              		.cfi_def_cfa_offset 16
 464              		.cfi_offset 6, -16
 465 0001 4889E5   		movq	%rsp, %rbp
 466              		.cfi_def_cfa_register 6
 467 0004 53       		pushq	%rbx
 468 0005 4883EC38 		subq	$56, %rsp
 469              		.cfi_offset 3, -24
 470 0009 48897DC8 		movq	%rdi, -56(%rbp)
 471 000d 488975C0 		movq	%rsi, -64(%rbp)
 437:/usr/include/boost/exception/exception.hpp ****             refcount_ptr<error_info_container> data;
 472              		.loc 3 437 0
 473 0011 488D45D8 		leaq	-40(%rbp), %rax
 474 0015 4889C7   		movq	%rax, %rdi
 475 0018 E8000000 		call	_ZN5boost16exception_detail12refcount_ptrINS0_20error_info_containerEEC1Ev
 475      00
 476              	.LBB12:
 438:/usr/include/boost/exception/exception.hpp ****             if( error_info_container * d=b->data_.get() )
 477              		.loc 3 438 0
 478 001d 488B45C0 		movq	-64(%rbp), %rax
 479 0021 4883C008 		addq	$8, %rax
 480 0025 4889C7   		movq	%rax, %rdi
 481 0028 E8000000 		call	_ZNK5boost16exception_detail12refcount_ptrINS0_20error_info_containerEE3getEv
 481      00
 482 002d 488945E8 		movq	%rax, -24(%rbp)
GAS LISTING /tmp/ccvUPO8Q.s 			page 21


 483 0031 48837DE8 		cmpq	$0, -24(%rbp)
 483      00
 484 0036 743D     		je	.L17
 439:/usr/include/boost/exception/exception.hpp ****                 data = d->clone();
 485              		.loc 3 439 0
 486 0038 488B45E8 		movq	-24(%rbp), %rax
 487 003c 488B00   		movq	(%rax), %rax
 488 003f 4883C028 		addq	$40, %rax
 489 0043 488B00   		movq	(%rax), %rax
 490 0046 488D55E0 		leaq	-32(%rbp), %rdx
 491 004a 488B4DE8 		movq	-24(%rbp), %rcx
 492 004e 4889CE   		movq	%rcx, %rsi
 493 0051 4889D7   		movq	%rdx, %rdi
 494              	.LEHB0:
 495 0054 FFD0     		call	*%rax
 496              	.LVL0:
 497              	.LEHE0:
 498              		.loc 3 439 0 is_stmt 0 discriminator 1
 499 0056 488D55E0 		leaq	-32(%rbp), %rdx
 500 005a 488D45D8 		leaq	-40(%rbp), %rax
 501 005e 4889D6   		movq	%rdx, %rsi
 502 0061 4889C7   		movq	%rax, %rdi
 503              	.LEHB1:
 504 0064 E8000000 		call	_ZN5boost16exception_detail12refcount_ptrINS0_20error_info_containerEEaSERKS3_
 504      00
 505              	.LEHE1:
 506              		.loc 3 439 0 discriminator 3
 507 0069 488D45E0 		leaq	-32(%rbp), %rax
 508 006d 4889C7   		movq	%rax, %rdi
 509 0070 E8000000 		call	_ZN5boost16exception_detail12refcount_ptrINS0_20error_info_containerEED1Ev
 509      00
 510              	.L17:
 511              	.LBE12:
 440:/usr/include/boost/exception/exception.hpp ****             a->throw_file_ = b->throw_file_;
 512              		.loc 3 440 0 is_stmt 1
 513 0075 488B45C0 		movq	-64(%rbp), %rax
 514 0079 488B5018 		movq	24(%rax), %rdx
 515 007d 488B45C8 		movq	-56(%rbp), %rax
 516 0081 48895018 		movq	%rdx, 24(%rax)
 441:/usr/include/boost/exception/exception.hpp ****             a->throw_line_ = b->throw_line_;
 517              		.loc 3 441 0
 518 0085 488B45C0 		movq	-64(%rbp), %rax
 519 0089 8B5020   		movl	32(%rax), %edx
 520 008c 488B45C8 		movq	-56(%rbp), %rax
 521 0090 895020   		movl	%edx, 32(%rax)
 442:/usr/include/boost/exception/exception.hpp ****             a->throw_function_ = b->throw_function_;
 522              		.loc 3 442 0
 523 0093 488B45C0 		movq	-64(%rbp), %rax
 524 0097 488B5010 		movq	16(%rax), %rdx
 525 009b 488B45C8 		movq	-56(%rbp), %rax
 526 009f 48895010 		movq	%rdx, 16(%rax)
 443:/usr/include/boost/exception/exception.hpp ****             a->data_ = data;
 527              		.loc 3 443 0
 528 00a3 488B45C8 		movq	-56(%rbp), %rax
 529 00a7 488D5008 		leaq	8(%rax), %rdx
 530 00ab 488D45D8 		leaq	-40(%rbp), %rax
 531 00af 4889C6   		movq	%rax, %rsi
GAS LISTING /tmp/ccvUPO8Q.s 			page 22


 532 00b2 4889D7   		movq	%rdx, %rdi
 533              	.LEHB2:
 534 00b5 E8000000 		call	_ZN5boost16exception_detail12refcount_ptrINS0_20error_info_containerEEaSERKS3_
 534      00
 535              	.LEHE2:
 437:/usr/include/boost/exception/exception.hpp ****             if( error_info_container * d=b->data_.get() )
 536              		.loc 3 437 0
 537 00ba 488D45D8 		leaq	-40(%rbp), %rax
 538 00be 4889C7   		movq	%rax, %rdi
 539 00c1 E8000000 		call	_ZN5boost16exception_detail12refcount_ptrINS0_20error_info_containerEED1Ev
 539      00
 444:/usr/include/boost/exception/exception.hpp ****             }
 540              		.loc 3 444 0
 541 00c6 EB2B     		jmp	.L22
 542              	.L21:
 543 00c8 4889C3   		movq	%rax, %rbx
 544              	.LBB13:
 439:/usr/include/boost/exception/exception.hpp ****             a->throw_file_ = b->throw_file_;
 545              		.loc 3 439 0
 546 00cb 488D45E0 		leaq	-32(%rbp), %rax
 547 00cf 4889C7   		movq	%rax, %rdi
 548 00d2 E8000000 		call	_ZN5boost16exception_detail12refcount_ptrINS0_20error_info_containerEED1Ev
 548      00
 549 00d7 EB03     		jmp	.L19
 550              	.L20:
 551 00d9 4889C3   		movq	%rax, %rbx
 552              	.L19:
 553              	.LBE13:
 437:/usr/include/boost/exception/exception.hpp ****             if( error_info_container * d=b->data_.get() )
 554              		.loc 3 437 0
 555 00dc 488D45D8 		leaq	-40(%rbp), %rax
 556 00e0 4889C7   		movq	%rax, %rdi
 557 00e3 E8000000 		call	_ZN5boost16exception_detail12refcount_ptrINS0_20error_info_containerEED1Ev
 557      00
 558 00e8 4889D8   		movq	%rbx, %rax
 559 00eb 4889C7   		movq	%rax, %rdi
 560              	.LEHB3:
 561 00ee E8000000 		call	_Unwind_Resume@PLT
 561      00
 562              	.LEHE3:
 563              	.L22:
 564              		.loc 3 444 0
 565 00f3 4883C438 		addq	$56, %rsp
 566 00f7 5B       		popq	%rbx
 567 00f8 5D       		popq	%rbp
 568              		.cfi_def_cfa 7, 8
 569 00f9 C3       		ret
 570              		.cfi_endproc
 571              	.LFE1951:
 572              		.globl	__gxx_personality_v0
 573              		.section	.gcc_except_table._ZN5boost16exception_detail20copy_boost_exceptionEPNS_9exceptionEPKS1_,
 574              	.LLSDA1951:
 575 0000 FF       		.byte	0xff
 576 0001 FF       		.byte	0xff
 577 0002 01       		.byte	0x1
 578 0003 15       		.uleb128 .LLSDACSE1951-.LLSDACSB1951
 579              	.LLSDACSB1951:
GAS LISTING /tmp/ccvUPO8Q.s 			page 23


 580 0004 54       		.uleb128 .LEHB0-.LFB1951
 581 0005 02       		.uleb128 .LEHE0-.LEHB0
 582 0006 D901     		.uleb128 .L20-.LFB1951
 583 0008 00       		.uleb128 0
 584 0009 64       		.uleb128 .LEHB1-.LFB1951
 585 000a 05       		.uleb128 .LEHE1-.LEHB1
 586 000b C801     		.uleb128 .L21-.LFB1951
 587 000d 00       		.uleb128 0
 588 000e B501     		.uleb128 .LEHB2-.LFB1951
 589 0010 05       		.uleb128 .LEHE2-.LEHB2
 590 0011 D901     		.uleb128 .L20-.LFB1951
 591 0013 00       		.uleb128 0
 592 0014 EE01     		.uleb128 .LEHB3-.LFB1951
 593 0016 05       		.uleb128 .LEHE3-.LEHB3
 594 0017 00       		.uleb128 0
 595 0018 00       		.uleb128 0
 596              	.LLSDACSE1951:
 597              		.section	.text._ZN5boost16exception_detail20copy_boost_exceptionEPNS_9exceptionEPKS1_,"axG",@progb
 599              		.section	.text._ZN5boost36throw_exception_assert_compatibilityERKSt9exception,"axG",@progbits,_ZN5
 600              		.weak	_ZN5boost36throw_exception_assert_compatibilityERKSt9exception
 602              	_ZN5boost36throw_exception_assert_compatibilityERKSt9exception:
 603              	.LFB1960:
 604              		.file 4 "/usr/include/boost/throw_exception.hpp"
   1:/usr/include/boost/throw_exception.hpp **** #ifndef UUID_AA15E74A856F11E08B8D93F24824019B
   2:/usr/include/boost/throw_exception.hpp **** #define UUID_AA15E74A856F11E08B8D93F24824019B
   3:/usr/include/boost/throw_exception.hpp **** #if (__GNUC__*100+__GNUC_MINOR__>301) && !defined(BOOST_EXCEPTION_ENABLE_WARNINGS)
   4:/usr/include/boost/throw_exception.hpp **** #pragma GCC system_header
   5:/usr/include/boost/throw_exception.hpp **** #endif
   6:/usr/include/boost/throw_exception.hpp **** #if defined(_MSC_VER) && !defined(BOOST_EXCEPTION_ENABLE_WARNINGS)
   7:/usr/include/boost/throw_exception.hpp **** #pragma warning(push,1)
   8:/usr/include/boost/throw_exception.hpp **** #endif
   9:/usr/include/boost/throw_exception.hpp **** 
  10:/usr/include/boost/throw_exception.hpp **** // MS compatible compilers support #pragma once
  11:/usr/include/boost/throw_exception.hpp **** 
  12:/usr/include/boost/throw_exception.hpp **** #if defined(_MSC_VER) && (_MSC_VER >= 1020)
  13:/usr/include/boost/throw_exception.hpp **** # pragma once
  14:/usr/include/boost/throw_exception.hpp **** #endif
  15:/usr/include/boost/throw_exception.hpp **** 
  16:/usr/include/boost/throw_exception.hpp **** //
  17:/usr/include/boost/throw_exception.hpp **** //  boost/throw_exception.hpp
  18:/usr/include/boost/throw_exception.hpp **** //
  19:/usr/include/boost/throw_exception.hpp **** //  Copyright (c) 2002 Peter Dimov and Multi Media Ltd.
  20:/usr/include/boost/throw_exception.hpp **** //  Copyright (c) 2008-2009 Emil Dotchevski and Reverge Studios, Inc.
  21:/usr/include/boost/throw_exception.hpp **** //
  22:/usr/include/boost/throw_exception.hpp **** //  Distributed under the Boost Software License, Version 1.0. (See
  23:/usr/include/boost/throw_exception.hpp **** //  accompanying file LICENSE_1_0.txt or copy at
  24:/usr/include/boost/throw_exception.hpp **** //  http://www.boost.org/LICENSE_1_0.txt)
  25:/usr/include/boost/throw_exception.hpp **** //
  26:/usr/include/boost/throw_exception.hpp **** //  http://www.boost.org/libs/utility/throw_exception.html
  27:/usr/include/boost/throw_exception.hpp **** //
  28:/usr/include/boost/throw_exception.hpp **** 
  29:/usr/include/boost/throw_exception.hpp **** #include <boost/detail/workaround.hpp>
  30:/usr/include/boost/throw_exception.hpp **** #include <boost/config.hpp>
  31:/usr/include/boost/throw_exception.hpp **** #include <exception>
  32:/usr/include/boost/throw_exception.hpp **** 
  33:/usr/include/boost/throw_exception.hpp **** #if !defined( BOOST_EXCEPTION_DISABLE ) && defined( __BORLANDC__ ) && BOOST_WORKAROUND( __BORLANDC_
  34:/usr/include/boost/throw_exception.hpp **** # define BOOST_EXCEPTION_DISABLE
GAS LISTING /tmp/ccvUPO8Q.s 			page 24


  35:/usr/include/boost/throw_exception.hpp **** #endif
  36:/usr/include/boost/throw_exception.hpp **** 
  37:/usr/include/boost/throw_exception.hpp **** #if !defined( BOOST_EXCEPTION_DISABLE ) && defined( BOOST_MSVC ) && BOOST_WORKAROUND( BOOST_MSVC, <
  38:/usr/include/boost/throw_exception.hpp **** # define BOOST_EXCEPTION_DISABLE
  39:/usr/include/boost/throw_exception.hpp **** #endif
  40:/usr/include/boost/throw_exception.hpp **** 
  41:/usr/include/boost/throw_exception.hpp **** #if !defined( BOOST_EXCEPTION_DISABLE )
  42:/usr/include/boost/throw_exception.hpp **** # include <boost/exception/exception.hpp>
  43:/usr/include/boost/throw_exception.hpp **** #if !defined(BOOST_THROW_EXCEPTION_CURRENT_FUNCTION)
  44:/usr/include/boost/throw_exception.hpp **** # include <boost/current_function.hpp>
  45:/usr/include/boost/throw_exception.hpp **** # define BOOST_THROW_EXCEPTION_CURRENT_FUNCTION BOOST_CURRENT_FUNCTION
  46:/usr/include/boost/throw_exception.hpp **** #endif
  47:/usr/include/boost/throw_exception.hpp **** # define BOOST_THROW_EXCEPTION(x) ::boost::exception_detail::throw_exception_(x,BOOST_THROW_EXCEPTI
  48:/usr/include/boost/throw_exception.hpp **** #else
  49:/usr/include/boost/throw_exception.hpp **** # define BOOST_THROW_EXCEPTION(x) ::boost::throw_exception(x)
  50:/usr/include/boost/throw_exception.hpp **** #endif
  51:/usr/include/boost/throw_exception.hpp **** 
  52:/usr/include/boost/throw_exception.hpp **** namespace boost
  53:/usr/include/boost/throw_exception.hpp **** {
  54:/usr/include/boost/throw_exception.hpp **** #ifdef BOOST_NO_EXCEPTIONS
  55:/usr/include/boost/throw_exception.hpp **** 
  56:/usr/include/boost/throw_exception.hpp **** void throw_exception( std::exception const & e ); // user defined
  57:/usr/include/boost/throw_exception.hpp **** 
  58:/usr/include/boost/throw_exception.hpp **** #else
  59:/usr/include/boost/throw_exception.hpp **** 
  60:/usr/include/boost/throw_exception.hpp **** inline void throw_exception_assert_compatibility( std::exception const & ) { }
 605              		.loc 4 60 0
 606              		.cfi_startproc
 607 0000 55       		pushq	%rbp
 608              		.cfi_def_cfa_offset 16
 609              		.cfi_offset 6, -16
 610 0001 4889E5   		movq	%rsp, %rbp
 611              		.cfi_def_cfa_register 6
 612 0004 48897DF8 		movq	%rdi, -8(%rbp)
 613              		.loc 4 60 0
 614 0008 90       		nop
 615 0009 5D       		popq	%rbp
 616              		.cfi_def_cfa 7, 8
 617 000a C3       		ret
 618              		.cfi_endproc
 619              	.LFE1960:
 621              		.section	.text._ZN5boost6detail23atomic_exchange_and_addEPii,"axG",@progbits,_ZN5boost6detail23ato
 622              		.weak	_ZN5boost6detail23atomic_exchange_and_addEPii
 624              	_ZN5boost6detail23atomic_exchange_and_addEPii:
 625              	.LFB2012:
 626              		.file 5 "/usr/include/boost/smart_ptr/detail/sp_counted_base_gcc_x86.hpp"
   1:/usr/include/boost/smart_ptr/detail/sp_counted_base_gcc_x86.hpp **** #ifndef BOOST_SMART_PTR_DETAIL_SP_COUNTED_BASE_GCC_X86_HPP_INCLUDED
   2:/usr/include/boost/smart_ptr/detail/sp_counted_base_gcc_x86.hpp **** #define BOOST_SMART_PTR_DETAIL_SP_COUNTED_BASE_GCC_X86_HPP_INCLUDED
   3:/usr/include/boost/smart_ptr/detail/sp_counted_base_gcc_x86.hpp **** 
   4:/usr/include/boost/smart_ptr/detail/sp_counted_base_gcc_x86.hpp **** // MS compatible compilers support #pragma once
   5:/usr/include/boost/smart_ptr/detail/sp_counted_base_gcc_x86.hpp **** 
   6:/usr/include/boost/smart_ptr/detail/sp_counted_base_gcc_x86.hpp **** #if defined(_MSC_VER) && (_MSC_VER >= 1020)
   7:/usr/include/boost/smart_ptr/detail/sp_counted_base_gcc_x86.hpp **** # pragma once
   8:/usr/include/boost/smart_ptr/detail/sp_counted_base_gcc_x86.hpp **** #endif
   9:/usr/include/boost/smart_ptr/detail/sp_counted_base_gcc_x86.hpp **** 
  10:/usr/include/boost/smart_ptr/detail/sp_counted_base_gcc_x86.hpp **** //
  11:/usr/include/boost/smart_ptr/detail/sp_counted_base_gcc_x86.hpp **** //  detail/sp_counted_base_gcc_x86.hpp - g++ on 486+ or AMD64
GAS LISTING /tmp/ccvUPO8Q.s 			page 25


  12:/usr/include/boost/smart_ptr/detail/sp_counted_base_gcc_x86.hpp **** //
  13:/usr/include/boost/smart_ptr/detail/sp_counted_base_gcc_x86.hpp **** //  Copyright (c) 2001, 2002, 2003 Peter Dimov and Multi Media Ltd.
  14:/usr/include/boost/smart_ptr/detail/sp_counted_base_gcc_x86.hpp **** //  Copyright 2004-2005 Peter Dimov
  15:/usr/include/boost/smart_ptr/detail/sp_counted_base_gcc_x86.hpp **** //
  16:/usr/include/boost/smart_ptr/detail/sp_counted_base_gcc_x86.hpp **** //  Distributed under the Boost Software License, Version 1.0. (See
  17:/usr/include/boost/smart_ptr/detail/sp_counted_base_gcc_x86.hpp **** //  accompanying file LICENSE_1_0.txt or copy at
  18:/usr/include/boost/smart_ptr/detail/sp_counted_base_gcc_x86.hpp **** //  http://www.boost.org/LICENSE_1_0.txt)
  19:/usr/include/boost/smart_ptr/detail/sp_counted_base_gcc_x86.hpp **** //
  20:/usr/include/boost/smart_ptr/detail/sp_counted_base_gcc_x86.hpp **** //
  21:/usr/include/boost/smart_ptr/detail/sp_counted_base_gcc_x86.hpp **** //  Lock-free algorithm by Alexander Terekhov
  22:/usr/include/boost/smart_ptr/detail/sp_counted_base_gcc_x86.hpp **** //
  23:/usr/include/boost/smart_ptr/detail/sp_counted_base_gcc_x86.hpp **** //  Thanks to Ben Hitchings for the #weak + (#shared != 0)
  24:/usr/include/boost/smart_ptr/detail/sp_counted_base_gcc_x86.hpp **** //  formulation
  25:/usr/include/boost/smart_ptr/detail/sp_counted_base_gcc_x86.hpp **** //
  26:/usr/include/boost/smart_ptr/detail/sp_counted_base_gcc_x86.hpp **** 
  27:/usr/include/boost/smart_ptr/detail/sp_counted_base_gcc_x86.hpp **** #include <boost/detail/sp_typeinfo.hpp>
  28:/usr/include/boost/smart_ptr/detail/sp_counted_base_gcc_x86.hpp **** 
  29:/usr/include/boost/smart_ptr/detail/sp_counted_base_gcc_x86.hpp **** namespace boost
  30:/usr/include/boost/smart_ptr/detail/sp_counted_base_gcc_x86.hpp **** {
  31:/usr/include/boost/smart_ptr/detail/sp_counted_base_gcc_x86.hpp **** 
  32:/usr/include/boost/smart_ptr/detail/sp_counted_base_gcc_x86.hpp **** namespace detail
  33:/usr/include/boost/smart_ptr/detail/sp_counted_base_gcc_x86.hpp **** {
  34:/usr/include/boost/smart_ptr/detail/sp_counted_base_gcc_x86.hpp **** 
  35:/usr/include/boost/smart_ptr/detail/sp_counted_base_gcc_x86.hpp **** inline int atomic_exchange_and_add( int * pw, int dv )
  36:/usr/include/boost/smart_ptr/detail/sp_counted_base_gcc_x86.hpp **** {
 627              		.loc 5 36 0
 628              		.cfi_startproc
 629 0000 55       		pushq	%rbp
 630              		.cfi_def_cfa_offset 16
 631              		.cfi_offset 6, -16
 632 0001 4889E5   		movq	%rsp, %rbp
 633              		.cfi_def_cfa_register 6
 634 0004 48897DE8 		movq	%rdi, -24(%rbp)
 635 0008 8975E4   		movl	%esi, -28(%rbp)
  37:/usr/include/boost/smart_ptr/detail/sp_counted_base_gcc_x86.hpp ****     // int r = *pw;
  38:/usr/include/boost/smart_ptr/detail/sp_counted_base_gcc_x86.hpp ****     // *pw += dv;
  39:/usr/include/boost/smart_ptr/detail/sp_counted_base_gcc_x86.hpp ****     // return r;
  40:/usr/include/boost/smart_ptr/detail/sp_counted_base_gcc_x86.hpp **** 
  41:/usr/include/boost/smart_ptr/detail/sp_counted_base_gcc_x86.hpp ****     int r;
  42:/usr/include/boost/smart_ptr/detail/sp_counted_base_gcc_x86.hpp **** 
  43:/usr/include/boost/smart_ptr/detail/sp_counted_base_gcc_x86.hpp ****     __asm__ __volatile__
  44:/usr/include/boost/smart_ptr/detail/sp_counted_base_gcc_x86.hpp ****     (
  45:/usr/include/boost/smart_ptr/detail/sp_counted_base_gcc_x86.hpp ****         "lock\n\t"
  46:/usr/include/boost/smart_ptr/detail/sp_counted_base_gcc_x86.hpp ****         "xadd %1, %0":
  47:/usr/include/boost/smart_ptr/detail/sp_counted_base_gcc_x86.hpp ****         "=m"( *pw ), "=r"( r ): // outputs (%0, %1)
  48:/usr/include/boost/smart_ptr/detail/sp_counted_base_gcc_x86.hpp ****         "m"( *pw ), "1"( dv ): // inputs (%2, %3 == %1)
  49:/usr/include/boost/smart_ptr/detail/sp_counted_base_gcc_x86.hpp ****         "memory", "cc" // clobbers
  50:/usr/include/boost/smart_ptr/detail/sp_counted_base_gcc_x86.hpp ****     );
 636              		.loc 5 50 0
 637 000b 488B55E8 		movq	-24(%rbp), %rdx
 638 000f 488B4DE8 		movq	-24(%rbp), %rcx
 639 0013 8B45E4   		movl	-28(%rbp), %eax
 640              	#APP
 641              	# 50 "/usr/include/boost/smart_ptr/detail/sp_counted_base_gcc_x86.hpp" 1
  51 0017 0FC102   	
  52              	    return r;
 642              		lock
GAS LISTING /tmp/ccvUPO8Q.s 			page 26


 643              		xadd %eax, (%rdx)
 644              	# 0 "" 2
 645              	#NO_APP
 646 001a 8945FC   		movl	%eax, -4(%rbp)
 647              		.loc 5 52 0
 648 001d 8B45FC   		movl	-4(%rbp), %eax
  53:/usr/include/boost/smart_ptr/detail/sp_counted_base_gcc_x86.hpp **** }
 649              		.loc 5 53 0
 650 0020 5D       		popq	%rbp
 651              		.cfi_def_cfa 7, 8
 652 0021 C3       		ret
 653              		.cfi_endproc
 654              	.LFE2012:
 656              		.section	.text._ZN5boost6detail16atomic_incrementEPi,"axG",@progbits,_ZN5boost6detail16atomic_incr
 657              		.weak	_ZN5boost6detail16atomic_incrementEPi
 659              	_ZN5boost6detail16atomic_incrementEPi:
 660              	.LFB2013:
  54:/usr/include/boost/smart_ptr/detail/sp_counted_base_gcc_x86.hpp **** 
  55:/usr/include/boost/smart_ptr/detail/sp_counted_base_gcc_x86.hpp **** inline void atomic_increment( int * pw )
  56:/usr/include/boost/smart_ptr/detail/sp_counted_base_gcc_x86.hpp **** {
 661              		.loc 5 56 0
 662              		.cfi_startproc
 663 0000 55       		pushq	%rbp
 664              		.cfi_def_cfa_offset 16
 665              		.cfi_offset 6, -16
 666 0001 4889E5   		movq	%rsp, %rbp
 667              		.cfi_def_cfa_register 6
 668 0004 48897DF8 		movq	%rdi, -8(%rbp)
  57:/usr/include/boost/smart_ptr/detail/sp_counted_base_gcc_x86.hpp ****     //atomic_exchange_and_add( pw, 1 );
  58:/usr/include/boost/smart_ptr/detail/sp_counted_base_gcc_x86.hpp **** 
  59:/usr/include/boost/smart_ptr/detail/sp_counted_base_gcc_x86.hpp ****     __asm__
  60:/usr/include/boost/smart_ptr/detail/sp_counted_base_gcc_x86.hpp ****     (
  61:/usr/include/boost/smart_ptr/detail/sp_counted_base_gcc_x86.hpp ****         "lock\n\t"
  62:/usr/include/boost/smart_ptr/detail/sp_counted_base_gcc_x86.hpp ****         "incl %0":
  63:/usr/include/boost/smart_ptr/detail/sp_counted_base_gcc_x86.hpp ****         "=m"( *pw ): // output (%0)
  64:/usr/include/boost/smart_ptr/detail/sp_counted_base_gcc_x86.hpp ****         "m"( *pw ): // input (%1)
  65:/usr/include/boost/smart_ptr/detail/sp_counted_base_gcc_x86.hpp ****         "cc" // clobbers
  66:/usr/include/boost/smart_ptr/detail/sp_counted_base_gcc_x86.hpp ****     );
 669              		.loc 5 66 0
 670 0008 488B45F8 		movq	-8(%rbp), %rax
 671 000c 488B55F8 		movq	-8(%rbp), %rdx
 672              	#APP
 673              	# 66 "/usr/include/boost/smart_ptr/detail/sp_counted_base_gcc_x86.hpp" 1
  67 0011 FF00     	}
  68              	
  67:/usr/include/boost/smart_ptr/detail/sp_counted_base_gcc_x86.hpp **** 
 674              		lock
 675              		incl (%rax)
 676              	# 0 "" 2
 677              		.loc 5 67 0
 678              	#NO_APP
 679 0013 90       		nop
 680 0014 5D       		popq	%rbp
 681              		.cfi_def_cfa 7, 8
 682 0015 C3       		ret
 683              		.cfi_endproc
 684              	.LFE2013:
GAS LISTING /tmp/ccvUPO8Q.s 			page 27


 686              		.section	.text._ZN5boost6detail15sp_counted_baseC2Ev,"axG",@progbits,_ZN5boost6detail15sp_counted_
 687              		.align 2
 688              		.weak	_ZN5boost6detail15sp_counted_baseC2Ev
 690              	_ZN5boost6detail15sp_counted_baseC2Ev:
 691              	.LFB2016:
  69:/usr/include/boost/smart_ptr/detail/sp_counted_base_gcc_x86.hpp **** inline int atomic_conditional_increment( int * pw )
  70:/usr/include/boost/smart_ptr/detail/sp_counted_base_gcc_x86.hpp **** {
  71:/usr/include/boost/smart_ptr/detail/sp_counted_base_gcc_x86.hpp ****     // int rv = *pw;
  72:/usr/include/boost/smart_ptr/detail/sp_counted_base_gcc_x86.hpp ****     // if( rv != 0 ) ++*pw;
  73:/usr/include/boost/smart_ptr/detail/sp_counted_base_gcc_x86.hpp ****     // return rv;
  74:/usr/include/boost/smart_ptr/detail/sp_counted_base_gcc_x86.hpp **** 
  75:/usr/include/boost/smart_ptr/detail/sp_counted_base_gcc_x86.hpp ****     int rv, tmp;
  76:/usr/include/boost/smart_ptr/detail/sp_counted_base_gcc_x86.hpp **** 
  77:/usr/include/boost/smart_ptr/detail/sp_counted_base_gcc_x86.hpp ****     __asm__
  78:/usr/include/boost/smart_ptr/detail/sp_counted_base_gcc_x86.hpp ****     (
  79:/usr/include/boost/smart_ptr/detail/sp_counted_base_gcc_x86.hpp ****         "movl %0, %%eax\n\t"
  80:/usr/include/boost/smart_ptr/detail/sp_counted_base_gcc_x86.hpp ****         "0:\n\t"
  81:/usr/include/boost/smart_ptr/detail/sp_counted_base_gcc_x86.hpp ****         "test %%eax, %%eax\n\t"
  82:/usr/include/boost/smart_ptr/detail/sp_counted_base_gcc_x86.hpp ****         "je 1f\n\t"
  83:/usr/include/boost/smart_ptr/detail/sp_counted_base_gcc_x86.hpp ****         "movl %%eax, %2\n\t"
  84:/usr/include/boost/smart_ptr/detail/sp_counted_base_gcc_x86.hpp ****         "incl %2\n\t"
  85:/usr/include/boost/smart_ptr/detail/sp_counted_base_gcc_x86.hpp ****         "lock\n\t"
  86:/usr/include/boost/smart_ptr/detail/sp_counted_base_gcc_x86.hpp ****         "cmpxchgl %2, %0\n\t"
  87:/usr/include/boost/smart_ptr/detail/sp_counted_base_gcc_x86.hpp ****         "jne 0b\n\t"
  88:/usr/include/boost/smart_ptr/detail/sp_counted_base_gcc_x86.hpp ****         "1:":
  89:/usr/include/boost/smart_ptr/detail/sp_counted_base_gcc_x86.hpp ****         "=m"( *pw ), "=&a"( rv ), "=&r"( tmp ): // outputs (%0, %1, %2)
  90:/usr/include/boost/smart_ptr/detail/sp_counted_base_gcc_x86.hpp ****         "m"( *pw ): // input (%3)
  91:/usr/include/boost/smart_ptr/detail/sp_counted_base_gcc_x86.hpp ****         "cc" // clobbers
  92:/usr/include/boost/smart_ptr/detail/sp_counted_base_gcc_x86.hpp ****     );
  93:/usr/include/boost/smart_ptr/detail/sp_counted_base_gcc_x86.hpp **** 
  94:/usr/include/boost/smart_ptr/detail/sp_counted_base_gcc_x86.hpp ****     return rv;
  95:/usr/include/boost/smart_ptr/detail/sp_counted_base_gcc_x86.hpp **** }
  96:/usr/include/boost/smart_ptr/detail/sp_counted_base_gcc_x86.hpp **** 
  97:/usr/include/boost/smart_ptr/detail/sp_counted_base_gcc_x86.hpp **** class sp_counted_base
  98:/usr/include/boost/smart_ptr/detail/sp_counted_base_gcc_x86.hpp **** {
  99:/usr/include/boost/smart_ptr/detail/sp_counted_base_gcc_x86.hpp **** private:
 100:/usr/include/boost/smart_ptr/detail/sp_counted_base_gcc_x86.hpp **** 
 101:/usr/include/boost/smart_ptr/detail/sp_counted_base_gcc_x86.hpp ****     sp_counted_base( sp_counted_base const & );
 102:/usr/include/boost/smart_ptr/detail/sp_counted_base_gcc_x86.hpp ****     sp_counted_base & operator= ( sp_counted_base const & );
 103:/usr/include/boost/smart_ptr/detail/sp_counted_base_gcc_x86.hpp **** 
 104:/usr/include/boost/smart_ptr/detail/sp_counted_base_gcc_x86.hpp ****     int use_count_;        // #shared
 105:/usr/include/boost/smart_ptr/detail/sp_counted_base_gcc_x86.hpp ****     int weak_count_;       // #weak + (#shared != 0)
 106:/usr/include/boost/smart_ptr/detail/sp_counted_base_gcc_x86.hpp **** 
 107:/usr/include/boost/smart_ptr/detail/sp_counted_base_gcc_x86.hpp **** public:
 108:/usr/include/boost/smart_ptr/detail/sp_counted_base_gcc_x86.hpp **** 
 109:/usr/include/boost/smart_ptr/detail/sp_counted_base_gcc_x86.hpp ****     sp_counted_base(): use_count_( 1 ), weak_count_( 1 )
 692              		.loc 5 109 0
 693              		.cfi_startproc
 694 0000 55       		pushq	%rbp
 695              		.cfi_def_cfa_offset 16
 696              		.cfi_offset 6, -16
 697 0001 4889E5   		movq	%rsp, %rbp
 698              		.cfi_def_cfa_register 6
 699 0004 48897DF8 		movq	%rdi, -8(%rbp)
 700              	.LBB14:
 701              		.loc 5 109 0
 702 0008 488D1500 		leaq	16+_ZTVN5boost6detail15sp_counted_baseE(%rip), %rdx
GAS LISTING /tmp/ccvUPO8Q.s 			page 28


 702      000000
 703 000f 488B45F8 		movq	-8(%rbp), %rax
 704 0013 488910   		movq	%rdx, (%rax)
 705 0016 488B45F8 		movq	-8(%rbp), %rax
 706 001a C7400801 		movl	$1, 8(%rax)
 706      000000
 707 0021 488B45F8 		movq	-8(%rbp), %rax
 708 0025 C7400C01 		movl	$1, 12(%rax)
 708      000000
 709              	.LBE14:
 110:/usr/include/boost/smart_ptr/detail/sp_counted_base_gcc_x86.hpp ****     {
 111:/usr/include/boost/smart_ptr/detail/sp_counted_base_gcc_x86.hpp ****     }
 710              		.loc 5 111 0
 711 002c 90       		nop
 712 002d 5D       		popq	%rbp
 713              		.cfi_def_cfa 7, 8
 714 002e C3       		ret
 715              		.cfi_endproc
 716              	.LFE2016:
 718              		.weak	_ZN5boost6detail15sp_counted_baseC1Ev
 719              		.set	_ZN5boost6detail15sp_counted_baseC1Ev,_ZN5boost6detail15sp_counted_baseC2Ev
 720              		.section	.text._ZN5boost6detail15sp_counted_baseD2Ev,"axG",@progbits,_ZN5boost6detail15sp_counted_
 721              		.align 2
 722              		.weak	_ZN5boost6detail15sp_counted_baseD2Ev
 724              	_ZN5boost6detail15sp_counted_baseD2Ev:
 725              	.LFB2019:
 112:/usr/include/boost/smart_ptr/detail/sp_counted_base_gcc_x86.hpp **** 
 113:/usr/include/boost/smart_ptr/detail/sp_counted_base_gcc_x86.hpp ****     virtual ~sp_counted_base() // nothrow
 726              		.loc 5 113 0
 727              		.cfi_startproc
 728 0000 55       		pushq	%rbp
 729              		.cfi_def_cfa_offset 16
 730              		.cfi_offset 6, -16
 731 0001 4889E5   		movq	%rsp, %rbp
 732              		.cfi_def_cfa_register 6
 733 0004 48897DF8 		movq	%rdi, -8(%rbp)
 734              	.LBB15:
 114:/usr/include/boost/smart_ptr/detail/sp_counted_base_gcc_x86.hpp ****     {
 735              		.loc 5 114 0
 736 0008 488D1500 		leaq	16+_ZTVN5boost6detail15sp_counted_baseE(%rip), %rdx
 736      000000
 737 000f 488B45F8 		movq	-8(%rbp), %rax
 738 0013 488910   		movq	%rdx, (%rax)
 739              	.LBE15:
 115:/usr/include/boost/smart_ptr/detail/sp_counted_base_gcc_x86.hpp ****     }
 740              		.loc 5 115 0
 741 0016 90       		nop
 742 0017 5D       		popq	%rbp
 743              		.cfi_def_cfa 7, 8
 744 0018 C3       		ret
 745              		.cfi_endproc
 746              	.LFE2019:
 748              		.weak	_ZN5boost6detail15sp_counted_baseD1Ev
 749              		.set	_ZN5boost6detail15sp_counted_baseD1Ev,_ZN5boost6detail15sp_counted_baseD2Ev
 750              		.section	.text._ZN5boost6detail15sp_counted_baseD0Ev,"axG",@progbits,_ZN5boost6detail15sp_counted_
 751              		.align 2
 752              		.weak	_ZN5boost6detail15sp_counted_baseD0Ev
GAS LISTING /tmp/ccvUPO8Q.s 			page 29


 754              	_ZN5boost6detail15sp_counted_baseD0Ev:
 755              	.LFB2021:
 113:/usr/include/boost/smart_ptr/detail/sp_counted_base_gcc_x86.hpp ****     {
 756              		.loc 5 113 0
 757              		.cfi_startproc
 758 0000 55       		pushq	%rbp
 759              		.cfi_def_cfa_offset 16
 760              		.cfi_offset 6, -16
 761 0001 4889E5   		movq	%rsp, %rbp
 762              		.cfi_def_cfa_register 6
 763 0004 4883EC10 		subq	$16, %rsp
 764 0008 48897DF8 		movq	%rdi, -8(%rbp)
 765              		.loc 5 115 0
 766 000c 488B45F8 		movq	-8(%rbp), %rax
 767 0010 4889C7   		movq	%rax, %rdi
 768 0013 E8000000 		call	_ZN5boost6detail15sp_counted_baseD1Ev
 768      00
 769 0018 488B45F8 		movq	-8(%rbp), %rax
 770 001c BE100000 		movl	$16, %esi
 770      00
 771 0021 4889C7   		movq	%rax, %rdi
 772 0024 E8000000 		call	_ZdlPvm@PLT
 772      00
 773 0029 C9       		leave
 774              		.cfi_def_cfa 7, 8
 775 002a C3       		ret
 776              		.cfi_endproc
 777              	.LFE2021:
 779              		.section	.text._ZN5boost6detail15sp_counted_base7destroyEv,"axG",@progbits,_ZN5boost6detail15sp_co
 780              		.align 2
 781              		.weak	_ZN5boost6detail15sp_counted_base7destroyEv
 783              	_ZN5boost6detail15sp_counted_base7destroyEv:
 784              	.LFB2022:
 116:/usr/include/boost/smart_ptr/detail/sp_counted_base_gcc_x86.hpp **** 
 117:/usr/include/boost/smart_ptr/detail/sp_counted_base_gcc_x86.hpp ****     // dispose() is called when use_count_ drops to zero, to release
 118:/usr/include/boost/smart_ptr/detail/sp_counted_base_gcc_x86.hpp ****     // the resources managed by *this.
 119:/usr/include/boost/smart_ptr/detail/sp_counted_base_gcc_x86.hpp **** 
 120:/usr/include/boost/smart_ptr/detail/sp_counted_base_gcc_x86.hpp ****     virtual void dispose() = 0; // nothrow
 121:/usr/include/boost/smart_ptr/detail/sp_counted_base_gcc_x86.hpp **** 
 122:/usr/include/boost/smart_ptr/detail/sp_counted_base_gcc_x86.hpp ****     // destroy() is called when weak_count_ drops to zero.
 123:/usr/include/boost/smart_ptr/detail/sp_counted_base_gcc_x86.hpp **** 
 124:/usr/include/boost/smart_ptr/detail/sp_counted_base_gcc_x86.hpp ****     virtual void destroy() // nothrow
 785              		.loc 5 124 0
 786              		.cfi_startproc
 787 0000 55       		pushq	%rbp
 788              		.cfi_def_cfa_offset 16
 789              		.cfi_offset 6, -16
 790 0001 4889E5   		movq	%rsp, %rbp
 791              		.cfi_def_cfa_register 6
 792 0004 4883EC10 		subq	$16, %rsp
 793 0008 48897DF8 		movq	%rdi, -8(%rbp)
 125:/usr/include/boost/smart_ptr/detail/sp_counted_base_gcc_x86.hpp ****     {
 126:/usr/include/boost/smart_ptr/detail/sp_counted_base_gcc_x86.hpp ****         delete this;
 794              		.loc 5 126 0
 795 000c 48837DF8 		cmpq	$0, -8(%rbp)
 795      00
 796 0011 7417     		je	.L32
GAS LISTING /tmp/ccvUPO8Q.s 			page 30


 797              		.loc 5 126 0 is_stmt 0 discriminator 1
 798 0013 488B45F8 		movq	-8(%rbp), %rax
 799 0017 488B00   		movq	(%rax), %rax
 800 001a 4883C008 		addq	$8, %rax
 801 001e 488B00   		movq	(%rax), %rax
 802 0021 488B55F8 		movq	-8(%rbp), %rdx
 803 0025 4889D7   		movq	%rdx, %rdi
 804 0028 FFD0     		call	*%rax
 805              	.LVL1:
 806              	.L32:
 127:/usr/include/boost/smart_ptr/detail/sp_counted_base_gcc_x86.hpp ****     }
 807              		.loc 5 127 0 is_stmt 1
 808 002a 90       		nop
 809 002b C9       		leave
 810              		.cfi_def_cfa 7, 8
 811 002c C3       		ret
 812              		.cfi_endproc
 813              	.LFE2022:
 815              		.section	.text._ZN5boost6detail15sp_counted_base12add_ref_copyEv,"axG",@progbits,_ZN5boost6detail1
 816              		.align 2
 817              		.weak	_ZN5boost6detail15sp_counted_base12add_ref_copyEv
 819              	_ZN5boost6detail15sp_counted_base12add_ref_copyEv:
 820              	.LFB2023:
 128:/usr/include/boost/smart_ptr/detail/sp_counted_base_gcc_x86.hpp **** 
 129:/usr/include/boost/smart_ptr/detail/sp_counted_base_gcc_x86.hpp ****     virtual void * get_deleter( sp_typeinfo const & ti ) = 0;
 130:/usr/include/boost/smart_ptr/detail/sp_counted_base_gcc_x86.hpp ****     virtual void * get_untyped_deleter() = 0;
 131:/usr/include/boost/smart_ptr/detail/sp_counted_base_gcc_x86.hpp **** 
 132:/usr/include/boost/smart_ptr/detail/sp_counted_base_gcc_x86.hpp ****     void add_ref_copy()
 821              		.loc 5 132 0
 822              		.cfi_startproc
 823 0000 55       		pushq	%rbp
 824              		.cfi_def_cfa_offset 16
 825              		.cfi_offset 6, -16
 826 0001 4889E5   		movq	%rsp, %rbp
 827              		.cfi_def_cfa_register 6
 828 0004 4883EC10 		subq	$16, %rsp
 829 0008 48897DF8 		movq	%rdi, -8(%rbp)
 133:/usr/include/boost/smart_ptr/detail/sp_counted_base_gcc_x86.hpp ****     {
 134:/usr/include/boost/smart_ptr/detail/sp_counted_base_gcc_x86.hpp ****         atomic_increment( &use_count_ );
 830              		.loc 5 134 0
 831 000c 488B45F8 		movq	-8(%rbp), %rax
 832 0010 4883C008 		addq	$8, %rax
 833 0014 4889C7   		movq	%rax, %rdi
 834 0017 E8000000 		call	_ZN5boost6detail16atomic_incrementEPi
 834      00
 135:/usr/include/boost/smart_ptr/detail/sp_counted_base_gcc_x86.hpp ****     }
 835              		.loc 5 135 0
 836 001c 90       		nop
 837 001d C9       		leave
 838              		.cfi_def_cfa 7, 8
 839 001e C3       		ret
 840              		.cfi_endproc
 841              	.LFE2023:
 843              		.section	.text._ZN5boost6detail15sp_counted_base7releaseEv,"axG",@progbits,_ZN5boost6detail15sp_co
 844              		.align 2
 845              		.weak	_ZN5boost6detail15sp_counted_base7releaseEv
 847              	_ZN5boost6detail15sp_counted_base7releaseEv:
GAS LISTING /tmp/ccvUPO8Q.s 			page 31


 848              	.LFB2025:
 136:/usr/include/boost/smart_ptr/detail/sp_counted_base_gcc_x86.hpp **** 
 137:/usr/include/boost/smart_ptr/detail/sp_counted_base_gcc_x86.hpp ****     bool add_ref_lock() // true on success
 138:/usr/include/boost/smart_ptr/detail/sp_counted_base_gcc_x86.hpp ****     {
 139:/usr/include/boost/smart_ptr/detail/sp_counted_base_gcc_x86.hpp ****         return atomic_conditional_increment( &use_count_ ) != 0;
 140:/usr/include/boost/smart_ptr/detail/sp_counted_base_gcc_x86.hpp ****     }
 141:/usr/include/boost/smart_ptr/detail/sp_counted_base_gcc_x86.hpp **** 
 142:/usr/include/boost/smart_ptr/detail/sp_counted_base_gcc_x86.hpp ****     void release() // nothrow
 849              		.loc 5 142 0
 850              		.cfi_startproc
 851 0000 55       		pushq	%rbp
 852              		.cfi_def_cfa_offset 16
 853              		.cfi_offset 6, -16
 854 0001 4889E5   		movq	%rsp, %rbp
 855              		.cfi_def_cfa_register 6
 856 0004 4883EC10 		subq	$16, %rsp
 857 0008 48897DF8 		movq	%rdi, -8(%rbp)
 143:/usr/include/boost/smart_ptr/detail/sp_counted_base_gcc_x86.hpp ****     {
 144:/usr/include/boost/smart_ptr/detail/sp_counted_base_gcc_x86.hpp ****         if( atomic_exchange_and_add( &use_count_, -1 ) == 1 )
 858              		.loc 5 144 0
 859 000c 488B45F8 		movq	-8(%rbp), %rax
 860 0010 4883C008 		addq	$8, %rax
 861 0014 BEFFFFFF 		movl	$-1, %esi
 861      FF
 862 0019 4889C7   		movq	%rax, %rdi
 863 001c E8000000 		call	_ZN5boost6detail23atomic_exchange_and_addEPii
 863      00
 864 0021 83F801   		cmpl	$1, %eax
 865 0024 0F94C0   		sete	%al
 866 0027 84C0     		testb	%al, %al
 867 0029 7423     		je	.L36
 145:/usr/include/boost/smart_ptr/detail/sp_counted_base_gcc_x86.hpp ****         {
 146:/usr/include/boost/smart_ptr/detail/sp_counted_base_gcc_x86.hpp ****             dispose();
 868              		.loc 5 146 0
 869 002b 488B45F8 		movq	-8(%rbp), %rax
 870 002f 488B00   		movq	(%rax), %rax
 871 0032 4883C010 		addq	$16, %rax
 872 0036 488B00   		movq	(%rax), %rax
 873 0039 488B55F8 		movq	-8(%rbp), %rdx
 874 003d 4889D7   		movq	%rdx, %rdi
 875 0040 FFD0     		call	*%rax
 876              	.LVL2:
 147:/usr/include/boost/smart_ptr/detail/sp_counted_base_gcc_x86.hpp ****             weak_release();
 877              		.loc 5 147 0
 878 0042 488B45F8 		movq	-8(%rbp), %rax
 879 0046 4889C7   		movq	%rax, %rdi
 880 0049 E8000000 		call	_ZN5boost6detail15sp_counted_base12weak_releaseEv
 880      00
 881              	.L36:
 148:/usr/include/boost/smart_ptr/detail/sp_counted_base_gcc_x86.hpp ****         }
 149:/usr/include/boost/smart_ptr/detail/sp_counted_base_gcc_x86.hpp ****     }
 882              		.loc 5 149 0
 883 004e 90       		nop
 884 004f C9       		leave
 885              		.cfi_def_cfa 7, 8
 886 0050 C3       		ret
 887              		.cfi_endproc
GAS LISTING /tmp/ccvUPO8Q.s 			page 32


 888              	.LFE2025:
 890              		.section	.text._ZN5boost6detail15sp_counted_base12weak_releaseEv,"axG",@progbits,_ZN5boost6detail1
 891              		.align 2
 892              		.weak	_ZN5boost6detail15sp_counted_base12weak_releaseEv
 894              	_ZN5boost6detail15sp_counted_base12weak_releaseEv:
 895              	.LFB2027:
 150:/usr/include/boost/smart_ptr/detail/sp_counted_base_gcc_x86.hpp **** 
 151:/usr/include/boost/smart_ptr/detail/sp_counted_base_gcc_x86.hpp ****     void weak_add_ref() // nothrow
 152:/usr/include/boost/smart_ptr/detail/sp_counted_base_gcc_x86.hpp ****     {
 153:/usr/include/boost/smart_ptr/detail/sp_counted_base_gcc_x86.hpp ****         atomic_increment( &weak_count_ );
 154:/usr/include/boost/smart_ptr/detail/sp_counted_base_gcc_x86.hpp ****     }
 155:/usr/include/boost/smart_ptr/detail/sp_counted_base_gcc_x86.hpp **** 
 156:/usr/include/boost/smart_ptr/detail/sp_counted_base_gcc_x86.hpp ****     void weak_release() // nothrow
 896              		.loc 5 156 0
 897              		.cfi_startproc
 898 0000 55       		pushq	%rbp
 899              		.cfi_def_cfa_offset 16
 900              		.cfi_offset 6, -16
 901 0001 4889E5   		movq	%rsp, %rbp
 902              		.cfi_def_cfa_register 6
 903 0004 4883EC10 		subq	$16, %rsp
 904 0008 48897DF8 		movq	%rdi, -8(%rbp)
 157:/usr/include/boost/smart_ptr/detail/sp_counted_base_gcc_x86.hpp ****     {
 158:/usr/include/boost/smart_ptr/detail/sp_counted_base_gcc_x86.hpp ****         if( atomic_exchange_and_add( &weak_count_, -1 ) == 1 )
 905              		.loc 5 158 0
 906 000c 488B45F8 		movq	-8(%rbp), %rax
 907 0010 4883C00C 		addq	$12, %rax
 908 0014 BEFFFFFF 		movl	$-1, %esi
 908      FF
 909 0019 4889C7   		movq	%rax, %rdi
 910 001c E8000000 		call	_ZN5boost6detail23atomic_exchange_and_addEPii
 910      00
 911 0021 83F801   		cmpl	$1, %eax
 912 0024 0F94C0   		sete	%al
 913 0027 84C0     		testb	%al, %al
 914 0029 7417     		je	.L39
 159:/usr/include/boost/smart_ptr/detail/sp_counted_base_gcc_x86.hpp ****         {
 160:/usr/include/boost/smart_ptr/detail/sp_counted_base_gcc_x86.hpp ****             destroy();
 915              		.loc 5 160 0
 916 002b 488B45F8 		movq	-8(%rbp), %rax
 917 002f 488B00   		movq	(%rax), %rax
 918 0032 4883C018 		addq	$24, %rax
 919 0036 488B00   		movq	(%rax), %rax
 920 0039 488B55F8 		movq	-8(%rbp), %rdx
 921 003d 4889D7   		movq	%rdx, %rdi
 922 0040 FFD0     		call	*%rax
 923              	.LVL3:
 924              	.L39:
 161:/usr/include/boost/smart_ptr/detail/sp_counted_base_gcc_x86.hpp ****         }
 162:/usr/include/boost/smart_ptr/detail/sp_counted_base_gcc_x86.hpp ****     }
 925              		.loc 5 162 0
 926 0042 90       		nop
 927 0043 C9       		leave
 928              		.cfi_def_cfa 7, 8
 929 0044 C3       		ret
 930              		.cfi_endproc
 931              	.LFE2027:
GAS LISTING /tmp/ccvUPO8Q.s 			page 33


 933              		.section	.text._ZN5boost6detail12shared_countC2Ev,"axG",@progbits,_ZN5boost6detail12shared_countC5
 934              		.align 2
 935              		.weak	_ZN5boost6detail12shared_countC2Ev
 937              	_ZN5boost6detail12shared_countC2Ev:
 938              	.LFB2056:
 939              		.file 6 "/usr/include/boost/smart_ptr/detail/shared_count.hpp"
   1:/usr/include/boost/smart_ptr/detail/shared_count.hpp **** #ifndef BOOST_SMART_PTR_DETAIL_SHARED_COUNT_HPP_INCLUDED
   2:/usr/include/boost/smart_ptr/detail/shared_count.hpp **** #define BOOST_SMART_PTR_DETAIL_SHARED_COUNT_HPP_INCLUDED
   3:/usr/include/boost/smart_ptr/detail/shared_count.hpp **** 
   4:/usr/include/boost/smart_ptr/detail/shared_count.hpp **** // MS compatible compilers support #pragma once
   5:/usr/include/boost/smart_ptr/detail/shared_count.hpp **** 
   6:/usr/include/boost/smart_ptr/detail/shared_count.hpp **** #if defined(_MSC_VER) && (_MSC_VER >= 1020)
   7:/usr/include/boost/smart_ptr/detail/shared_count.hpp **** # pragma once
   8:/usr/include/boost/smart_ptr/detail/shared_count.hpp **** #endif
   9:/usr/include/boost/smart_ptr/detail/shared_count.hpp **** 
  10:/usr/include/boost/smart_ptr/detail/shared_count.hpp **** //
  11:/usr/include/boost/smart_ptr/detail/shared_count.hpp **** //  detail/shared_count.hpp
  12:/usr/include/boost/smart_ptr/detail/shared_count.hpp **** //
  13:/usr/include/boost/smart_ptr/detail/shared_count.hpp **** //  Copyright (c) 2001, 2002, 2003 Peter Dimov and Multi Media Ltd.
  14:/usr/include/boost/smart_ptr/detail/shared_count.hpp **** //  Copyright 2004-2005 Peter Dimov
  15:/usr/include/boost/smart_ptr/detail/shared_count.hpp **** //
  16:/usr/include/boost/smart_ptr/detail/shared_count.hpp **** // Distributed under the Boost Software License, Version 1.0. (See
  17:/usr/include/boost/smart_ptr/detail/shared_count.hpp **** // accompanying file LICENSE_1_0.txt or copy at
  18:/usr/include/boost/smart_ptr/detail/shared_count.hpp **** // http://www.boost.org/LICENSE_1_0.txt)
  19:/usr/include/boost/smart_ptr/detail/shared_count.hpp **** //
  20:/usr/include/boost/smart_ptr/detail/shared_count.hpp **** 
  21:/usr/include/boost/smart_ptr/detail/shared_count.hpp **** #ifdef __BORLANDC__
  22:/usr/include/boost/smart_ptr/detail/shared_count.hpp **** # pragma warn -8027     // Functions containing try are not expanded inline
  23:/usr/include/boost/smart_ptr/detail/shared_count.hpp **** #endif
  24:/usr/include/boost/smart_ptr/detail/shared_count.hpp **** 
  25:/usr/include/boost/smart_ptr/detail/shared_count.hpp **** #include <boost/config.hpp>
  26:/usr/include/boost/smart_ptr/detail/shared_count.hpp **** #include <boost/checked_delete.hpp>
  27:/usr/include/boost/smart_ptr/detail/shared_count.hpp **** #include <boost/throw_exception.hpp>
  28:/usr/include/boost/smart_ptr/detail/shared_count.hpp **** #include <boost/smart_ptr/bad_weak_ptr.hpp>
  29:/usr/include/boost/smart_ptr/detail/shared_count.hpp **** #include <boost/smart_ptr/detail/sp_counted_base.hpp>
  30:/usr/include/boost/smart_ptr/detail/shared_count.hpp **** #include <boost/smart_ptr/detail/sp_counted_impl.hpp>
  31:/usr/include/boost/smart_ptr/detail/shared_count.hpp **** #include <boost/smart_ptr/detail/sp_disable_deprecated.hpp>
  32:/usr/include/boost/smart_ptr/detail/shared_count.hpp **** #include <boost/detail/workaround.hpp>
  33:/usr/include/boost/smart_ptr/detail/shared_count.hpp **** // In order to avoid circular dependencies with Boost.TR1
  34:/usr/include/boost/smart_ptr/detail/shared_count.hpp **** // we make sure that our include of <memory> doesn't try to
  35:/usr/include/boost/smart_ptr/detail/shared_count.hpp **** // pull in the TR1 headers: that's why we use this header 
  36:/usr/include/boost/smart_ptr/detail/shared_count.hpp **** // rather than including <memory> directly:
  37:/usr/include/boost/smart_ptr/detail/shared_count.hpp **** #include <boost/config/no_tr1/memory.hpp>  // std::auto_ptr
  38:/usr/include/boost/smart_ptr/detail/shared_count.hpp **** #include <functional>       // std::less
  39:/usr/include/boost/smart_ptr/detail/shared_count.hpp **** 
  40:/usr/include/boost/smart_ptr/detail/shared_count.hpp **** #ifdef BOOST_NO_EXCEPTIONS
  41:/usr/include/boost/smart_ptr/detail/shared_count.hpp **** # include <new>              // std::bad_alloc
  42:/usr/include/boost/smart_ptr/detail/shared_count.hpp **** #endif
  43:/usr/include/boost/smart_ptr/detail/shared_count.hpp **** 
  44:/usr/include/boost/smart_ptr/detail/shared_count.hpp **** #include <boost/core/addressof.hpp>
  45:/usr/include/boost/smart_ptr/detail/shared_count.hpp **** 
  46:/usr/include/boost/smart_ptr/detail/shared_count.hpp **** #if defined( BOOST_SP_DISABLE_DEPRECATED )
  47:/usr/include/boost/smart_ptr/detail/shared_count.hpp **** #pragma GCC diagnostic push
  48:/usr/include/boost/smart_ptr/detail/shared_count.hpp **** #pragma GCC diagnostic ignored "-Wdeprecated-declarations"
  49:/usr/include/boost/smart_ptr/detail/shared_count.hpp **** #endif
  50:/usr/include/boost/smart_ptr/detail/shared_count.hpp **** 
  51:/usr/include/boost/smart_ptr/detail/shared_count.hpp **** namespace boost
GAS LISTING /tmp/ccvUPO8Q.s 			page 34


  52:/usr/include/boost/smart_ptr/detail/shared_count.hpp **** {
  53:/usr/include/boost/smart_ptr/detail/shared_count.hpp **** 
  54:/usr/include/boost/smart_ptr/detail/shared_count.hpp **** namespace movelib
  55:/usr/include/boost/smart_ptr/detail/shared_count.hpp **** {
  56:/usr/include/boost/smart_ptr/detail/shared_count.hpp **** 
  57:/usr/include/boost/smart_ptr/detail/shared_count.hpp ****     template< class T, class D > class unique_ptr;
  58:/usr/include/boost/smart_ptr/detail/shared_count.hpp **** 
  59:/usr/include/boost/smart_ptr/detail/shared_count.hpp **** } // namespace movelib
  60:/usr/include/boost/smart_ptr/detail/shared_count.hpp **** 
  61:/usr/include/boost/smart_ptr/detail/shared_count.hpp **** namespace detail
  62:/usr/include/boost/smart_ptr/detail/shared_count.hpp **** {
  63:/usr/include/boost/smart_ptr/detail/shared_count.hpp **** 
  64:/usr/include/boost/smart_ptr/detail/shared_count.hpp **** #if defined(BOOST_SP_ENABLE_DEBUG_HOOKS)
  65:/usr/include/boost/smart_ptr/detail/shared_count.hpp **** 
  66:/usr/include/boost/smart_ptr/detail/shared_count.hpp **** int const shared_count_id = 0x2C35F101;
  67:/usr/include/boost/smart_ptr/detail/shared_count.hpp **** int const   weak_count_id = 0x298C38A4;
  68:/usr/include/boost/smart_ptr/detail/shared_count.hpp **** 
  69:/usr/include/boost/smart_ptr/detail/shared_count.hpp **** #endif
  70:/usr/include/boost/smart_ptr/detail/shared_count.hpp **** 
  71:/usr/include/boost/smart_ptr/detail/shared_count.hpp **** struct sp_nothrow_tag {};
  72:/usr/include/boost/smart_ptr/detail/shared_count.hpp **** 
  73:/usr/include/boost/smart_ptr/detail/shared_count.hpp **** template< class D > struct sp_inplace_tag
  74:/usr/include/boost/smart_ptr/detail/shared_count.hpp **** {
  75:/usr/include/boost/smart_ptr/detail/shared_count.hpp **** };
  76:/usr/include/boost/smart_ptr/detail/shared_count.hpp **** 
  77:/usr/include/boost/smart_ptr/detail/shared_count.hpp **** template< class T > class sp_reference_wrapper
  78:/usr/include/boost/smart_ptr/detail/shared_count.hpp **** { 
  79:/usr/include/boost/smart_ptr/detail/shared_count.hpp **** public:
  80:/usr/include/boost/smart_ptr/detail/shared_count.hpp **** 
  81:/usr/include/boost/smart_ptr/detail/shared_count.hpp ****     explicit sp_reference_wrapper( T & t): t_( boost::addressof( t ) )
  82:/usr/include/boost/smart_ptr/detail/shared_count.hpp ****     {
  83:/usr/include/boost/smart_ptr/detail/shared_count.hpp ****     }
  84:/usr/include/boost/smart_ptr/detail/shared_count.hpp **** 
  85:/usr/include/boost/smart_ptr/detail/shared_count.hpp ****     template< class Y > void operator()( Y * p ) const
  86:/usr/include/boost/smart_ptr/detail/shared_count.hpp ****     {
  87:/usr/include/boost/smart_ptr/detail/shared_count.hpp ****         (*t_)( p );
  88:/usr/include/boost/smart_ptr/detail/shared_count.hpp ****     }
  89:/usr/include/boost/smart_ptr/detail/shared_count.hpp **** 
  90:/usr/include/boost/smart_ptr/detail/shared_count.hpp **** private:
  91:/usr/include/boost/smart_ptr/detail/shared_count.hpp **** 
  92:/usr/include/boost/smart_ptr/detail/shared_count.hpp ****     T * t_;
  93:/usr/include/boost/smart_ptr/detail/shared_count.hpp **** };
  94:/usr/include/boost/smart_ptr/detail/shared_count.hpp **** 
  95:/usr/include/boost/smart_ptr/detail/shared_count.hpp **** template< class D > struct sp_convert_reference
  96:/usr/include/boost/smart_ptr/detail/shared_count.hpp **** {
  97:/usr/include/boost/smart_ptr/detail/shared_count.hpp ****     typedef D type;
  98:/usr/include/boost/smart_ptr/detail/shared_count.hpp **** };
  99:/usr/include/boost/smart_ptr/detail/shared_count.hpp **** 
 100:/usr/include/boost/smart_ptr/detail/shared_count.hpp **** template< class D > struct sp_convert_reference< D& >
 101:/usr/include/boost/smart_ptr/detail/shared_count.hpp **** {
 102:/usr/include/boost/smart_ptr/detail/shared_count.hpp ****     typedef sp_reference_wrapper< D > type;
 103:/usr/include/boost/smart_ptr/detail/shared_count.hpp **** };
 104:/usr/include/boost/smart_ptr/detail/shared_count.hpp **** 
 105:/usr/include/boost/smart_ptr/detail/shared_count.hpp **** class weak_count;
 106:/usr/include/boost/smart_ptr/detail/shared_count.hpp **** 
 107:/usr/include/boost/smart_ptr/detail/shared_count.hpp **** class shared_count
 108:/usr/include/boost/smart_ptr/detail/shared_count.hpp **** {
GAS LISTING /tmp/ccvUPO8Q.s 			page 35


 109:/usr/include/boost/smart_ptr/detail/shared_count.hpp **** private:
 110:/usr/include/boost/smart_ptr/detail/shared_count.hpp **** 
 111:/usr/include/boost/smart_ptr/detail/shared_count.hpp ****     sp_counted_base * pi_;
 112:/usr/include/boost/smart_ptr/detail/shared_count.hpp **** 
 113:/usr/include/boost/smart_ptr/detail/shared_count.hpp **** #if defined(BOOST_SP_ENABLE_DEBUG_HOOKS)
 114:/usr/include/boost/smart_ptr/detail/shared_count.hpp ****     int id_;
 115:/usr/include/boost/smart_ptr/detail/shared_count.hpp **** #endif
 116:/usr/include/boost/smart_ptr/detail/shared_count.hpp **** 
 117:/usr/include/boost/smart_ptr/detail/shared_count.hpp ****     friend class weak_count;
 118:/usr/include/boost/smart_ptr/detail/shared_count.hpp **** 
 119:/usr/include/boost/smart_ptr/detail/shared_count.hpp **** public:
 120:/usr/include/boost/smart_ptr/detail/shared_count.hpp **** 
 121:/usr/include/boost/smart_ptr/detail/shared_count.hpp ****     shared_count(): pi_(0) // nothrow
 940              		.loc 6 121 0
 941              		.cfi_startproc
 942 0000 55       		pushq	%rbp
 943              		.cfi_def_cfa_offset 16
 944              		.cfi_offset 6, -16
 945 0001 4889E5   		movq	%rsp, %rbp
 946              		.cfi_def_cfa_register 6
 947 0004 48897DF8 		movq	%rdi, -8(%rbp)
 948              	.LBB16:
 949              		.loc 6 121 0
 950 0008 488B45F8 		movq	-8(%rbp), %rax
 951 000c 48C70000 		movq	$0, (%rax)
 951      000000
 952              	.LBE16:
 122:/usr/include/boost/smart_ptr/detail/shared_count.hpp **** #if defined(BOOST_SP_ENABLE_DEBUG_HOOKS)
 123:/usr/include/boost/smart_ptr/detail/shared_count.hpp ****         , id_(shared_count_id)
 124:/usr/include/boost/smart_ptr/detail/shared_count.hpp **** #endif
 125:/usr/include/boost/smart_ptr/detail/shared_count.hpp ****     {
 126:/usr/include/boost/smart_ptr/detail/shared_count.hpp ****     }
 953              		.loc 6 126 0
 954 0013 90       		nop
 955 0014 5D       		popq	%rbp
 956              		.cfi_def_cfa 7, 8
 957 0015 C3       		ret
 958              		.cfi_endproc
 959              	.LFE2056:
 961              		.weak	_ZN5boost6detail12shared_countC1Ev
 962              		.set	_ZN5boost6detail12shared_countC1Ev,_ZN5boost6detail12shared_countC2Ev
 963              		.section	.text._ZN5boost6detail12shared_countD2Ev,"axG",@progbits,_ZN5boost6detail12shared_countD5
 964              		.align 2
 965              		.weak	_ZN5boost6detail12shared_countD2Ev
 967              	_ZN5boost6detail12shared_countD2Ev:
 968              	.LFB2067:
 127:/usr/include/boost/smart_ptr/detail/shared_count.hpp **** 
 128:/usr/include/boost/smart_ptr/detail/shared_count.hpp ****     template<class Y> explicit shared_count( Y * p ): pi_( 0 )
 129:/usr/include/boost/smart_ptr/detail/shared_count.hpp **** #if defined(BOOST_SP_ENABLE_DEBUG_HOOKS)
 130:/usr/include/boost/smart_ptr/detail/shared_count.hpp ****         , id_(shared_count_id)
 131:/usr/include/boost/smart_ptr/detail/shared_count.hpp **** #endif
 132:/usr/include/boost/smart_ptr/detail/shared_count.hpp ****     {
 133:/usr/include/boost/smart_ptr/detail/shared_count.hpp **** #ifndef BOOST_NO_EXCEPTIONS
 134:/usr/include/boost/smart_ptr/detail/shared_count.hpp **** 
 135:/usr/include/boost/smart_ptr/detail/shared_count.hpp ****         try
 136:/usr/include/boost/smart_ptr/detail/shared_count.hpp ****         {
 137:/usr/include/boost/smart_ptr/detail/shared_count.hpp ****             pi_ = new sp_counted_impl_p<Y>( p );
GAS LISTING /tmp/ccvUPO8Q.s 			page 36


 138:/usr/include/boost/smart_ptr/detail/shared_count.hpp ****         }
 139:/usr/include/boost/smart_ptr/detail/shared_count.hpp ****         catch(...)
 140:/usr/include/boost/smart_ptr/detail/shared_count.hpp ****         {
 141:/usr/include/boost/smart_ptr/detail/shared_count.hpp ****             boost::checked_delete( p );
 142:/usr/include/boost/smart_ptr/detail/shared_count.hpp ****             throw;
 143:/usr/include/boost/smart_ptr/detail/shared_count.hpp ****         }
 144:/usr/include/boost/smart_ptr/detail/shared_count.hpp **** 
 145:/usr/include/boost/smart_ptr/detail/shared_count.hpp **** #else
 146:/usr/include/boost/smart_ptr/detail/shared_count.hpp **** 
 147:/usr/include/boost/smart_ptr/detail/shared_count.hpp ****         pi_ = new sp_counted_impl_p<Y>( p );
 148:/usr/include/boost/smart_ptr/detail/shared_count.hpp **** 
 149:/usr/include/boost/smart_ptr/detail/shared_count.hpp ****         if( pi_ == 0 )
 150:/usr/include/boost/smart_ptr/detail/shared_count.hpp ****         {
 151:/usr/include/boost/smart_ptr/detail/shared_count.hpp ****             boost::checked_delete( p );
 152:/usr/include/boost/smart_ptr/detail/shared_count.hpp ****             boost::throw_exception( std::bad_alloc() );
 153:/usr/include/boost/smart_ptr/detail/shared_count.hpp ****         }
 154:/usr/include/boost/smart_ptr/detail/shared_count.hpp **** 
 155:/usr/include/boost/smart_ptr/detail/shared_count.hpp **** #endif
 156:/usr/include/boost/smart_ptr/detail/shared_count.hpp ****     }
 157:/usr/include/boost/smart_ptr/detail/shared_count.hpp **** 
 158:/usr/include/boost/smart_ptr/detail/shared_count.hpp **** #if defined( BOOST_MSVC ) && BOOST_WORKAROUND( BOOST_MSVC, <= 1200 )
 159:/usr/include/boost/smart_ptr/detail/shared_count.hpp ****     template<class Y, class D> shared_count( Y * p, D d ): pi_(0)
 160:/usr/include/boost/smart_ptr/detail/shared_count.hpp **** #else
 161:/usr/include/boost/smart_ptr/detail/shared_count.hpp ****     template<class P, class D> shared_count( P p, D d ): pi_(0)
 162:/usr/include/boost/smart_ptr/detail/shared_count.hpp **** #endif
 163:/usr/include/boost/smart_ptr/detail/shared_count.hpp **** #if defined(BOOST_SP_ENABLE_DEBUG_HOOKS)
 164:/usr/include/boost/smart_ptr/detail/shared_count.hpp ****         , id_(shared_count_id)
 165:/usr/include/boost/smart_ptr/detail/shared_count.hpp **** #endif
 166:/usr/include/boost/smart_ptr/detail/shared_count.hpp ****     {
 167:/usr/include/boost/smart_ptr/detail/shared_count.hpp **** #if defined( BOOST_MSVC ) && BOOST_WORKAROUND( BOOST_MSVC, <= 1200 )
 168:/usr/include/boost/smart_ptr/detail/shared_count.hpp ****         typedef Y* P;
 169:/usr/include/boost/smart_ptr/detail/shared_count.hpp **** #endif
 170:/usr/include/boost/smart_ptr/detail/shared_count.hpp **** #ifndef BOOST_NO_EXCEPTIONS
 171:/usr/include/boost/smart_ptr/detail/shared_count.hpp **** 
 172:/usr/include/boost/smart_ptr/detail/shared_count.hpp ****         try
 173:/usr/include/boost/smart_ptr/detail/shared_count.hpp ****         {
 174:/usr/include/boost/smart_ptr/detail/shared_count.hpp ****             pi_ = new sp_counted_impl_pd<P, D>(p, d);
 175:/usr/include/boost/smart_ptr/detail/shared_count.hpp ****         }
 176:/usr/include/boost/smart_ptr/detail/shared_count.hpp ****         catch(...)
 177:/usr/include/boost/smart_ptr/detail/shared_count.hpp ****         {
 178:/usr/include/boost/smart_ptr/detail/shared_count.hpp ****             d(p); // delete p
 179:/usr/include/boost/smart_ptr/detail/shared_count.hpp ****             throw;
 180:/usr/include/boost/smart_ptr/detail/shared_count.hpp ****         }
 181:/usr/include/boost/smart_ptr/detail/shared_count.hpp **** 
 182:/usr/include/boost/smart_ptr/detail/shared_count.hpp **** #else
 183:/usr/include/boost/smart_ptr/detail/shared_count.hpp **** 
 184:/usr/include/boost/smart_ptr/detail/shared_count.hpp ****         pi_ = new sp_counted_impl_pd<P, D>(p, d);
 185:/usr/include/boost/smart_ptr/detail/shared_count.hpp **** 
 186:/usr/include/boost/smart_ptr/detail/shared_count.hpp ****         if(pi_ == 0)
 187:/usr/include/boost/smart_ptr/detail/shared_count.hpp ****         {
 188:/usr/include/boost/smart_ptr/detail/shared_count.hpp ****             d(p); // delete p
 189:/usr/include/boost/smart_ptr/detail/shared_count.hpp ****             boost::throw_exception(std::bad_alloc());
 190:/usr/include/boost/smart_ptr/detail/shared_count.hpp ****         }
 191:/usr/include/boost/smart_ptr/detail/shared_count.hpp **** 
 192:/usr/include/boost/smart_ptr/detail/shared_count.hpp **** #endif
 193:/usr/include/boost/smart_ptr/detail/shared_count.hpp ****     }
 194:/usr/include/boost/smart_ptr/detail/shared_count.hpp **** 
GAS LISTING /tmp/ccvUPO8Q.s 			page 37


 195:/usr/include/boost/smart_ptr/detail/shared_count.hpp **** #if !defined( BOOST_NO_FUNCTION_TEMPLATE_ORDERING )
 196:/usr/include/boost/smart_ptr/detail/shared_count.hpp **** 
 197:/usr/include/boost/smart_ptr/detail/shared_count.hpp ****     template< class P, class D > shared_count( P p, sp_inplace_tag<D> ): pi_( 0 )
 198:/usr/include/boost/smart_ptr/detail/shared_count.hpp **** #if defined(BOOST_SP_ENABLE_DEBUG_HOOKS)
 199:/usr/include/boost/smart_ptr/detail/shared_count.hpp ****         , id_(shared_count_id)
 200:/usr/include/boost/smart_ptr/detail/shared_count.hpp **** #endif
 201:/usr/include/boost/smart_ptr/detail/shared_count.hpp ****     {
 202:/usr/include/boost/smart_ptr/detail/shared_count.hpp **** #ifndef BOOST_NO_EXCEPTIONS
 203:/usr/include/boost/smart_ptr/detail/shared_count.hpp **** 
 204:/usr/include/boost/smart_ptr/detail/shared_count.hpp ****         try
 205:/usr/include/boost/smart_ptr/detail/shared_count.hpp ****         {
 206:/usr/include/boost/smart_ptr/detail/shared_count.hpp ****             pi_ = new sp_counted_impl_pd< P, D >( p );
 207:/usr/include/boost/smart_ptr/detail/shared_count.hpp ****         }
 208:/usr/include/boost/smart_ptr/detail/shared_count.hpp ****         catch( ... )
 209:/usr/include/boost/smart_ptr/detail/shared_count.hpp ****         {
 210:/usr/include/boost/smart_ptr/detail/shared_count.hpp ****             D::operator_fn( p ); // delete p
 211:/usr/include/boost/smart_ptr/detail/shared_count.hpp ****             throw;
 212:/usr/include/boost/smart_ptr/detail/shared_count.hpp ****         }
 213:/usr/include/boost/smart_ptr/detail/shared_count.hpp **** 
 214:/usr/include/boost/smart_ptr/detail/shared_count.hpp **** #else
 215:/usr/include/boost/smart_ptr/detail/shared_count.hpp **** 
 216:/usr/include/boost/smart_ptr/detail/shared_count.hpp ****         pi_ = new sp_counted_impl_pd< P, D >( p );
 217:/usr/include/boost/smart_ptr/detail/shared_count.hpp **** 
 218:/usr/include/boost/smart_ptr/detail/shared_count.hpp ****         if( pi_ == 0 )
 219:/usr/include/boost/smart_ptr/detail/shared_count.hpp ****         {
 220:/usr/include/boost/smart_ptr/detail/shared_count.hpp ****             D::operator_fn( p ); // delete p
 221:/usr/include/boost/smart_ptr/detail/shared_count.hpp ****             boost::throw_exception( std::bad_alloc() );
 222:/usr/include/boost/smart_ptr/detail/shared_count.hpp ****         }
 223:/usr/include/boost/smart_ptr/detail/shared_count.hpp **** 
 224:/usr/include/boost/smart_ptr/detail/shared_count.hpp **** #endif // #ifndef BOOST_NO_EXCEPTIONS
 225:/usr/include/boost/smart_ptr/detail/shared_count.hpp ****     }
 226:/usr/include/boost/smart_ptr/detail/shared_count.hpp **** 
 227:/usr/include/boost/smart_ptr/detail/shared_count.hpp **** #endif // !defined( BOOST_NO_FUNCTION_TEMPLATE_ORDERING )
 228:/usr/include/boost/smart_ptr/detail/shared_count.hpp **** 
 229:/usr/include/boost/smart_ptr/detail/shared_count.hpp ****     template<class P, class D, class A> shared_count( P p, D d, A a ): pi_( 0 )
 230:/usr/include/boost/smart_ptr/detail/shared_count.hpp **** #if defined(BOOST_SP_ENABLE_DEBUG_HOOKS)
 231:/usr/include/boost/smart_ptr/detail/shared_count.hpp ****         , id_(shared_count_id)
 232:/usr/include/boost/smart_ptr/detail/shared_count.hpp **** #endif
 233:/usr/include/boost/smart_ptr/detail/shared_count.hpp ****     {
 234:/usr/include/boost/smart_ptr/detail/shared_count.hpp ****         typedef sp_counted_impl_pda<P, D, A> impl_type;
 235:/usr/include/boost/smart_ptr/detail/shared_count.hpp **** 
 236:/usr/include/boost/smart_ptr/detail/shared_count.hpp **** #if !defined( BOOST_NO_CXX11_ALLOCATOR )
 237:/usr/include/boost/smart_ptr/detail/shared_count.hpp **** 
 238:/usr/include/boost/smart_ptr/detail/shared_count.hpp ****         typedef typename std::allocator_traits<A>::template rebind_alloc< impl_type > A2;
 239:/usr/include/boost/smart_ptr/detail/shared_count.hpp **** 
 240:/usr/include/boost/smart_ptr/detail/shared_count.hpp **** #else
 241:/usr/include/boost/smart_ptr/detail/shared_count.hpp **** 
 242:/usr/include/boost/smart_ptr/detail/shared_count.hpp ****         typedef typename A::template rebind< impl_type >::other A2;
 243:/usr/include/boost/smart_ptr/detail/shared_count.hpp **** 
 244:/usr/include/boost/smart_ptr/detail/shared_count.hpp **** #endif
 245:/usr/include/boost/smart_ptr/detail/shared_count.hpp **** 
 246:/usr/include/boost/smart_ptr/detail/shared_count.hpp ****         A2 a2( a );
 247:/usr/include/boost/smart_ptr/detail/shared_count.hpp **** 
 248:/usr/include/boost/smart_ptr/detail/shared_count.hpp **** #ifndef BOOST_NO_EXCEPTIONS
 249:/usr/include/boost/smart_ptr/detail/shared_count.hpp **** 
 250:/usr/include/boost/smart_ptr/detail/shared_count.hpp ****         try
 251:/usr/include/boost/smart_ptr/detail/shared_count.hpp ****         {
GAS LISTING /tmp/ccvUPO8Q.s 			page 38


 252:/usr/include/boost/smart_ptr/detail/shared_count.hpp **** #if !defined( BOOST_NO_CXX11_ALLOCATOR )
 253:/usr/include/boost/smart_ptr/detail/shared_count.hpp **** 
 254:/usr/include/boost/smart_ptr/detail/shared_count.hpp ****             impl_type * pi = std::allocator_traits<A2>::allocate( a2, 1 );
 255:/usr/include/boost/smart_ptr/detail/shared_count.hpp ****             pi_ = pi;
 256:/usr/include/boost/smart_ptr/detail/shared_count.hpp ****             std::allocator_traits<A2>::construct( a2, pi, p, d, a );
 257:/usr/include/boost/smart_ptr/detail/shared_count.hpp **** 
 258:/usr/include/boost/smart_ptr/detail/shared_count.hpp **** #else
 259:/usr/include/boost/smart_ptr/detail/shared_count.hpp **** 
 260:/usr/include/boost/smart_ptr/detail/shared_count.hpp ****             pi_ = a2.allocate( 1, static_cast< impl_type* >( 0 ) );
 261:/usr/include/boost/smart_ptr/detail/shared_count.hpp ****             ::new( static_cast< void* >( pi_ ) ) impl_type( p, d, a );
 262:/usr/include/boost/smart_ptr/detail/shared_count.hpp **** 
 263:/usr/include/boost/smart_ptr/detail/shared_count.hpp **** #endif
 264:/usr/include/boost/smart_ptr/detail/shared_count.hpp ****         }
 265:/usr/include/boost/smart_ptr/detail/shared_count.hpp ****         catch(...)
 266:/usr/include/boost/smart_ptr/detail/shared_count.hpp ****         {
 267:/usr/include/boost/smart_ptr/detail/shared_count.hpp ****             d( p );
 268:/usr/include/boost/smart_ptr/detail/shared_count.hpp **** 
 269:/usr/include/boost/smart_ptr/detail/shared_count.hpp ****             if( pi_ != 0 )
 270:/usr/include/boost/smart_ptr/detail/shared_count.hpp ****             {
 271:/usr/include/boost/smart_ptr/detail/shared_count.hpp ****                 a2.deallocate( static_cast< impl_type* >( pi_ ), 1 );
 272:/usr/include/boost/smart_ptr/detail/shared_count.hpp ****             }
 273:/usr/include/boost/smart_ptr/detail/shared_count.hpp **** 
 274:/usr/include/boost/smart_ptr/detail/shared_count.hpp ****             throw;
 275:/usr/include/boost/smart_ptr/detail/shared_count.hpp ****         }
 276:/usr/include/boost/smart_ptr/detail/shared_count.hpp **** 
 277:/usr/include/boost/smart_ptr/detail/shared_count.hpp **** #else
 278:/usr/include/boost/smart_ptr/detail/shared_count.hpp **** 
 279:/usr/include/boost/smart_ptr/detail/shared_count.hpp **** #if !defined( BOOST_NO_CXX11_ALLOCATOR )
 280:/usr/include/boost/smart_ptr/detail/shared_count.hpp **** 
 281:/usr/include/boost/smart_ptr/detail/shared_count.hpp ****         impl_type * pi = std::allocator_traits<A2>::allocate( a2, 1 );
 282:/usr/include/boost/smart_ptr/detail/shared_count.hpp ****         pi_ = pi;
 283:/usr/include/boost/smart_ptr/detail/shared_count.hpp **** 
 284:/usr/include/boost/smart_ptr/detail/shared_count.hpp **** #else
 285:/usr/include/boost/smart_ptr/detail/shared_count.hpp **** 
 286:/usr/include/boost/smart_ptr/detail/shared_count.hpp ****         pi_ = a2.allocate( 1, static_cast< impl_type* >( 0 ) );
 287:/usr/include/boost/smart_ptr/detail/shared_count.hpp **** 
 288:/usr/include/boost/smart_ptr/detail/shared_count.hpp **** #endif
 289:/usr/include/boost/smart_ptr/detail/shared_count.hpp **** 
 290:/usr/include/boost/smart_ptr/detail/shared_count.hpp ****         if( pi_ != 0 )
 291:/usr/include/boost/smart_ptr/detail/shared_count.hpp ****         {
 292:/usr/include/boost/smart_ptr/detail/shared_count.hpp **** #if !defined( BOOST_NO_CXX11_ALLOCATOR )
 293:/usr/include/boost/smart_ptr/detail/shared_count.hpp **** 
 294:/usr/include/boost/smart_ptr/detail/shared_count.hpp ****             std::allocator_traits<A2>::construct( a2, pi, p, d, a );
 295:/usr/include/boost/smart_ptr/detail/shared_count.hpp **** 
 296:/usr/include/boost/smart_ptr/detail/shared_count.hpp **** #else
 297:/usr/include/boost/smart_ptr/detail/shared_count.hpp **** 
 298:/usr/include/boost/smart_ptr/detail/shared_count.hpp ****             ::new( static_cast< void* >( pi_ ) ) impl_type( p, d, a );
 299:/usr/include/boost/smart_ptr/detail/shared_count.hpp **** 
 300:/usr/include/boost/smart_ptr/detail/shared_count.hpp **** #endif
 301:/usr/include/boost/smart_ptr/detail/shared_count.hpp ****         }
 302:/usr/include/boost/smart_ptr/detail/shared_count.hpp ****         else
 303:/usr/include/boost/smart_ptr/detail/shared_count.hpp ****         {
 304:/usr/include/boost/smart_ptr/detail/shared_count.hpp ****             d( p );
 305:/usr/include/boost/smart_ptr/detail/shared_count.hpp ****             boost::throw_exception( std::bad_alloc() );
 306:/usr/include/boost/smart_ptr/detail/shared_count.hpp ****         }
 307:/usr/include/boost/smart_ptr/detail/shared_count.hpp **** 
 308:/usr/include/boost/smart_ptr/detail/shared_count.hpp **** #endif
GAS LISTING /tmp/ccvUPO8Q.s 			page 39


 309:/usr/include/boost/smart_ptr/detail/shared_count.hpp ****     }
 310:/usr/include/boost/smart_ptr/detail/shared_count.hpp **** 
 311:/usr/include/boost/smart_ptr/detail/shared_count.hpp **** #if !defined( BOOST_NO_FUNCTION_TEMPLATE_ORDERING )
 312:/usr/include/boost/smart_ptr/detail/shared_count.hpp **** 
 313:/usr/include/boost/smart_ptr/detail/shared_count.hpp ****     template< class P, class D, class A > shared_count( P p, sp_inplace_tag< D >, A a ): pi_( 0 )
 314:/usr/include/boost/smart_ptr/detail/shared_count.hpp **** #if defined(BOOST_SP_ENABLE_DEBUG_HOOKS)
 315:/usr/include/boost/smart_ptr/detail/shared_count.hpp ****         , id_(shared_count_id)
 316:/usr/include/boost/smart_ptr/detail/shared_count.hpp **** #endif
 317:/usr/include/boost/smart_ptr/detail/shared_count.hpp ****     {
 318:/usr/include/boost/smart_ptr/detail/shared_count.hpp ****         typedef sp_counted_impl_pda< P, D, A > impl_type;
 319:/usr/include/boost/smart_ptr/detail/shared_count.hpp **** 
 320:/usr/include/boost/smart_ptr/detail/shared_count.hpp **** #if !defined( BOOST_NO_CXX11_ALLOCATOR )
 321:/usr/include/boost/smart_ptr/detail/shared_count.hpp **** 
 322:/usr/include/boost/smart_ptr/detail/shared_count.hpp ****         typedef typename std::allocator_traits<A>::template rebind_alloc< impl_type > A2;
 323:/usr/include/boost/smart_ptr/detail/shared_count.hpp **** 
 324:/usr/include/boost/smart_ptr/detail/shared_count.hpp **** #else
 325:/usr/include/boost/smart_ptr/detail/shared_count.hpp **** 
 326:/usr/include/boost/smart_ptr/detail/shared_count.hpp ****         typedef typename A::template rebind< impl_type >::other A2;
 327:/usr/include/boost/smart_ptr/detail/shared_count.hpp **** 
 328:/usr/include/boost/smart_ptr/detail/shared_count.hpp **** #endif
 329:/usr/include/boost/smart_ptr/detail/shared_count.hpp **** 
 330:/usr/include/boost/smart_ptr/detail/shared_count.hpp ****         A2 a2( a );
 331:/usr/include/boost/smart_ptr/detail/shared_count.hpp **** 
 332:/usr/include/boost/smart_ptr/detail/shared_count.hpp **** #ifndef BOOST_NO_EXCEPTIONS
 333:/usr/include/boost/smart_ptr/detail/shared_count.hpp **** 
 334:/usr/include/boost/smart_ptr/detail/shared_count.hpp ****         try
 335:/usr/include/boost/smart_ptr/detail/shared_count.hpp ****         {
 336:/usr/include/boost/smart_ptr/detail/shared_count.hpp **** #if !defined( BOOST_NO_CXX11_ALLOCATOR )
 337:/usr/include/boost/smart_ptr/detail/shared_count.hpp **** 
 338:/usr/include/boost/smart_ptr/detail/shared_count.hpp ****             impl_type * pi = std::allocator_traits<A2>::allocate( a2, 1 );
 339:/usr/include/boost/smart_ptr/detail/shared_count.hpp ****             pi_ = pi;
 340:/usr/include/boost/smart_ptr/detail/shared_count.hpp ****             std::allocator_traits<A2>::construct( a2, pi, p, a );
 341:/usr/include/boost/smart_ptr/detail/shared_count.hpp **** 
 342:/usr/include/boost/smart_ptr/detail/shared_count.hpp **** #else
 343:/usr/include/boost/smart_ptr/detail/shared_count.hpp **** 
 344:/usr/include/boost/smart_ptr/detail/shared_count.hpp ****             pi_ = a2.allocate( 1, static_cast< impl_type* >( 0 ) );
 345:/usr/include/boost/smart_ptr/detail/shared_count.hpp ****             ::new( static_cast< void* >( pi_ ) ) impl_type( p, a );
 346:/usr/include/boost/smart_ptr/detail/shared_count.hpp **** 
 347:/usr/include/boost/smart_ptr/detail/shared_count.hpp **** #endif
 348:/usr/include/boost/smart_ptr/detail/shared_count.hpp ****         }
 349:/usr/include/boost/smart_ptr/detail/shared_count.hpp ****         catch(...)
 350:/usr/include/boost/smart_ptr/detail/shared_count.hpp ****         {
 351:/usr/include/boost/smart_ptr/detail/shared_count.hpp ****             D::operator_fn( p );
 352:/usr/include/boost/smart_ptr/detail/shared_count.hpp **** 
 353:/usr/include/boost/smart_ptr/detail/shared_count.hpp ****             if( pi_ != 0 )
 354:/usr/include/boost/smart_ptr/detail/shared_count.hpp ****             {
 355:/usr/include/boost/smart_ptr/detail/shared_count.hpp ****                 a2.deallocate( static_cast< impl_type* >( pi_ ), 1 );
 356:/usr/include/boost/smart_ptr/detail/shared_count.hpp ****             }
 357:/usr/include/boost/smart_ptr/detail/shared_count.hpp **** 
 358:/usr/include/boost/smart_ptr/detail/shared_count.hpp ****             throw;
 359:/usr/include/boost/smart_ptr/detail/shared_count.hpp ****         }
 360:/usr/include/boost/smart_ptr/detail/shared_count.hpp **** 
 361:/usr/include/boost/smart_ptr/detail/shared_count.hpp **** #else
 362:/usr/include/boost/smart_ptr/detail/shared_count.hpp **** 
 363:/usr/include/boost/smart_ptr/detail/shared_count.hpp **** #if !defined( BOOST_NO_CXX11_ALLOCATOR )
 364:/usr/include/boost/smart_ptr/detail/shared_count.hpp **** 
 365:/usr/include/boost/smart_ptr/detail/shared_count.hpp ****         impl_type * pi = std::allocator_traits<A2>::allocate( a2, 1 );
GAS LISTING /tmp/ccvUPO8Q.s 			page 40


 366:/usr/include/boost/smart_ptr/detail/shared_count.hpp ****         pi_ = pi;
 367:/usr/include/boost/smart_ptr/detail/shared_count.hpp **** 
 368:/usr/include/boost/smart_ptr/detail/shared_count.hpp **** #else
 369:/usr/include/boost/smart_ptr/detail/shared_count.hpp **** 
 370:/usr/include/boost/smart_ptr/detail/shared_count.hpp ****         pi_ = a2.allocate( 1, static_cast< impl_type* >( 0 ) );
 371:/usr/include/boost/smart_ptr/detail/shared_count.hpp **** 
 372:/usr/include/boost/smart_ptr/detail/shared_count.hpp **** #endif
 373:/usr/include/boost/smart_ptr/detail/shared_count.hpp **** 
 374:/usr/include/boost/smart_ptr/detail/shared_count.hpp ****         if( pi_ != 0 )
 375:/usr/include/boost/smart_ptr/detail/shared_count.hpp ****         {
 376:/usr/include/boost/smart_ptr/detail/shared_count.hpp **** #if !defined( BOOST_NO_CXX11_ALLOCATOR )
 377:/usr/include/boost/smart_ptr/detail/shared_count.hpp **** 
 378:/usr/include/boost/smart_ptr/detail/shared_count.hpp ****             std::allocator_traits<A2>::construct( a2, pi, p, a );
 379:/usr/include/boost/smart_ptr/detail/shared_count.hpp **** 
 380:/usr/include/boost/smart_ptr/detail/shared_count.hpp **** #else
 381:/usr/include/boost/smart_ptr/detail/shared_count.hpp **** 
 382:/usr/include/boost/smart_ptr/detail/shared_count.hpp ****             ::new( static_cast< void* >( pi_ ) ) impl_type( p, a );
 383:/usr/include/boost/smart_ptr/detail/shared_count.hpp **** 
 384:/usr/include/boost/smart_ptr/detail/shared_count.hpp **** #endif
 385:/usr/include/boost/smart_ptr/detail/shared_count.hpp ****         }
 386:/usr/include/boost/smart_ptr/detail/shared_count.hpp ****         else
 387:/usr/include/boost/smart_ptr/detail/shared_count.hpp ****         {
 388:/usr/include/boost/smart_ptr/detail/shared_count.hpp ****             D::operator_fn( p );
 389:/usr/include/boost/smart_ptr/detail/shared_count.hpp ****             boost::throw_exception( std::bad_alloc() );
 390:/usr/include/boost/smart_ptr/detail/shared_count.hpp ****         }
 391:/usr/include/boost/smart_ptr/detail/shared_count.hpp **** 
 392:/usr/include/boost/smart_ptr/detail/shared_count.hpp **** #endif // #ifndef BOOST_NO_EXCEPTIONS
 393:/usr/include/boost/smart_ptr/detail/shared_count.hpp ****     }
 394:/usr/include/boost/smart_ptr/detail/shared_count.hpp **** 
 395:/usr/include/boost/smart_ptr/detail/shared_count.hpp **** #endif // !defined( BOOST_NO_FUNCTION_TEMPLATE_ORDERING )
 396:/usr/include/boost/smart_ptr/detail/shared_count.hpp **** 
 397:/usr/include/boost/smart_ptr/detail/shared_count.hpp **** #ifndef BOOST_NO_AUTO_PTR
 398:/usr/include/boost/smart_ptr/detail/shared_count.hpp **** 
 399:/usr/include/boost/smart_ptr/detail/shared_count.hpp ****     // auto_ptr<Y> is special cased to provide the strong guarantee
 400:/usr/include/boost/smart_ptr/detail/shared_count.hpp **** 
 401:/usr/include/boost/smart_ptr/detail/shared_count.hpp ****     template<class Y>
 402:/usr/include/boost/smart_ptr/detail/shared_count.hpp ****     explicit shared_count( std::auto_ptr<Y> & r ): pi_( new sp_counted_impl_p<Y>( r.get() ) )
 403:/usr/include/boost/smart_ptr/detail/shared_count.hpp **** #if defined(BOOST_SP_ENABLE_DEBUG_HOOKS)
 404:/usr/include/boost/smart_ptr/detail/shared_count.hpp ****         , id_(shared_count_id)
 405:/usr/include/boost/smart_ptr/detail/shared_count.hpp **** #endif
 406:/usr/include/boost/smart_ptr/detail/shared_count.hpp ****     {
 407:/usr/include/boost/smart_ptr/detail/shared_count.hpp **** #ifdef BOOST_NO_EXCEPTIONS
 408:/usr/include/boost/smart_ptr/detail/shared_count.hpp **** 
 409:/usr/include/boost/smart_ptr/detail/shared_count.hpp ****         if( pi_ == 0 )
 410:/usr/include/boost/smart_ptr/detail/shared_count.hpp ****         {
 411:/usr/include/boost/smart_ptr/detail/shared_count.hpp ****             boost::throw_exception(std::bad_alloc());
 412:/usr/include/boost/smart_ptr/detail/shared_count.hpp ****         }
 413:/usr/include/boost/smart_ptr/detail/shared_count.hpp **** 
 414:/usr/include/boost/smart_ptr/detail/shared_count.hpp **** #endif
 415:/usr/include/boost/smart_ptr/detail/shared_count.hpp **** 
 416:/usr/include/boost/smart_ptr/detail/shared_count.hpp ****         r.release();
 417:/usr/include/boost/smart_ptr/detail/shared_count.hpp ****     }
 418:/usr/include/boost/smart_ptr/detail/shared_count.hpp **** 
 419:/usr/include/boost/smart_ptr/detail/shared_count.hpp **** #endif 
 420:/usr/include/boost/smart_ptr/detail/shared_count.hpp **** 
 421:/usr/include/boost/smart_ptr/detail/shared_count.hpp **** #if !defined( BOOST_NO_CXX11_SMART_PTR )
 422:/usr/include/boost/smart_ptr/detail/shared_count.hpp **** 
GAS LISTING /tmp/ccvUPO8Q.s 			page 41


 423:/usr/include/boost/smart_ptr/detail/shared_count.hpp ****     template<class Y, class D>
 424:/usr/include/boost/smart_ptr/detail/shared_count.hpp ****     explicit shared_count( std::unique_ptr<Y, D> & r ): pi_( 0 )
 425:/usr/include/boost/smart_ptr/detail/shared_count.hpp **** #if defined(BOOST_SP_ENABLE_DEBUG_HOOKS)
 426:/usr/include/boost/smart_ptr/detail/shared_count.hpp ****         , id_(shared_count_id)
 427:/usr/include/boost/smart_ptr/detail/shared_count.hpp **** #endif
 428:/usr/include/boost/smart_ptr/detail/shared_count.hpp ****     {
 429:/usr/include/boost/smart_ptr/detail/shared_count.hpp ****         typedef typename sp_convert_reference<D>::type D2;
 430:/usr/include/boost/smart_ptr/detail/shared_count.hpp **** 
 431:/usr/include/boost/smart_ptr/detail/shared_count.hpp ****         D2 d2( r.get_deleter() );
 432:/usr/include/boost/smart_ptr/detail/shared_count.hpp ****         pi_ = new sp_counted_impl_pd< typename std::unique_ptr<Y, D>::pointer, D2 >( r.get(), d2 );
 433:/usr/include/boost/smart_ptr/detail/shared_count.hpp **** 
 434:/usr/include/boost/smart_ptr/detail/shared_count.hpp **** #ifdef BOOST_NO_EXCEPTIONS
 435:/usr/include/boost/smart_ptr/detail/shared_count.hpp **** 
 436:/usr/include/boost/smart_ptr/detail/shared_count.hpp ****         if( pi_ == 0 )
 437:/usr/include/boost/smart_ptr/detail/shared_count.hpp ****         {
 438:/usr/include/boost/smart_ptr/detail/shared_count.hpp ****             boost::throw_exception( std::bad_alloc() );
 439:/usr/include/boost/smart_ptr/detail/shared_count.hpp ****         }
 440:/usr/include/boost/smart_ptr/detail/shared_count.hpp **** 
 441:/usr/include/boost/smart_ptr/detail/shared_count.hpp **** #endif
 442:/usr/include/boost/smart_ptr/detail/shared_count.hpp **** 
 443:/usr/include/boost/smart_ptr/detail/shared_count.hpp ****         r.release();
 444:/usr/include/boost/smart_ptr/detail/shared_count.hpp ****     }
 445:/usr/include/boost/smart_ptr/detail/shared_count.hpp **** 
 446:/usr/include/boost/smart_ptr/detail/shared_count.hpp **** #endif
 447:/usr/include/boost/smart_ptr/detail/shared_count.hpp **** 
 448:/usr/include/boost/smart_ptr/detail/shared_count.hpp ****     template<class Y, class D>
 449:/usr/include/boost/smart_ptr/detail/shared_count.hpp ****     explicit shared_count( boost::movelib::unique_ptr<Y, D> & r ): pi_( 0 )
 450:/usr/include/boost/smart_ptr/detail/shared_count.hpp **** #if defined(BOOST_SP_ENABLE_DEBUG_HOOKS)
 451:/usr/include/boost/smart_ptr/detail/shared_count.hpp ****         , id_(shared_count_id)
 452:/usr/include/boost/smart_ptr/detail/shared_count.hpp **** #endif
 453:/usr/include/boost/smart_ptr/detail/shared_count.hpp ****     {
 454:/usr/include/boost/smart_ptr/detail/shared_count.hpp ****         typedef typename sp_convert_reference<D>::type D2;
 455:/usr/include/boost/smart_ptr/detail/shared_count.hpp **** 
 456:/usr/include/boost/smart_ptr/detail/shared_count.hpp ****         D2 d2( r.get_deleter() );
 457:/usr/include/boost/smart_ptr/detail/shared_count.hpp ****         pi_ = new sp_counted_impl_pd< typename boost::movelib::unique_ptr<Y, D>::pointer, D2 >( r.g
 458:/usr/include/boost/smart_ptr/detail/shared_count.hpp **** 
 459:/usr/include/boost/smart_ptr/detail/shared_count.hpp **** #ifdef BOOST_NO_EXCEPTIONS
 460:/usr/include/boost/smart_ptr/detail/shared_count.hpp **** 
 461:/usr/include/boost/smart_ptr/detail/shared_count.hpp ****         if( pi_ == 0 )
 462:/usr/include/boost/smart_ptr/detail/shared_count.hpp ****         {
 463:/usr/include/boost/smart_ptr/detail/shared_count.hpp ****             boost::throw_exception( std::bad_alloc() );
 464:/usr/include/boost/smart_ptr/detail/shared_count.hpp ****         }
 465:/usr/include/boost/smart_ptr/detail/shared_count.hpp **** 
 466:/usr/include/boost/smart_ptr/detail/shared_count.hpp **** #endif
 467:/usr/include/boost/smart_ptr/detail/shared_count.hpp **** 
 468:/usr/include/boost/smart_ptr/detail/shared_count.hpp ****         r.release();
 469:/usr/include/boost/smart_ptr/detail/shared_count.hpp ****     }
 470:/usr/include/boost/smart_ptr/detail/shared_count.hpp **** 
 471:/usr/include/boost/smart_ptr/detail/shared_count.hpp ****     ~shared_count() // nothrow
 969              		.loc 6 471 0
 970              		.cfi_startproc
 971              		.cfi_personality 0x9b,DW.ref.__gxx_personality_v0
 972              		.cfi_lsda 0x1b,.LLSDA2067
 973 0000 55       		pushq	%rbp
 974              		.cfi_def_cfa_offset 16
 975              		.cfi_offset 6, -16
 976 0001 4889E5   		movq	%rsp, %rbp
GAS LISTING /tmp/ccvUPO8Q.s 			page 42


 977              		.cfi_def_cfa_register 6
 978 0004 4883EC10 		subq	$16, %rsp
 979 0008 48897DF8 		movq	%rdi, -8(%rbp)
 980              	.LBB17:
 472:/usr/include/boost/smart_ptr/detail/shared_count.hpp ****     {
 473:/usr/include/boost/smart_ptr/detail/shared_count.hpp ****         if( pi_ != 0 ) pi_->release();
 981              		.loc 6 473 0
 982 000c 488B45F8 		movq	-8(%rbp), %rax
 983 0010 488B00   		movq	(%rax), %rax
 984 0013 4885C0   		testq	%rax, %rax
 985 0016 740F     		je	.L43
 986              		.loc 6 473 0 is_stmt 0 discriminator 1
 987 0018 488B45F8 		movq	-8(%rbp), %rax
 988 001c 488B00   		movq	(%rax), %rax
 989 001f 4889C7   		movq	%rax, %rdi
 990 0022 E8000000 		call	_ZN5boost6detail15sp_counted_base7releaseEv
 990      00
 991              	.L43:
 992              	.LBE17:
 474:/usr/include/boost/smart_ptr/detail/shared_count.hpp **** #if defined(BOOST_SP_ENABLE_DEBUG_HOOKS)
 475:/usr/include/boost/smart_ptr/detail/shared_count.hpp ****         id_ = 0;
 476:/usr/include/boost/smart_ptr/detail/shared_count.hpp **** #endif
 477:/usr/include/boost/smart_ptr/detail/shared_count.hpp ****     }
 993              		.loc 6 477 0 is_stmt 1
 994 0027 90       		nop
 995 0028 C9       		leave
 996              		.cfi_def_cfa 7, 8
 997 0029 C3       		ret
 998              		.cfi_endproc
 999              	.LFE2067:
 1000              		.section	.gcc_except_table._ZN5boost6detail12shared_countD2Ev,"aG",@progbits,_ZN5boost6detail12sha
 1001              	.LLSDA2067:
 1002 0000 FF       		.byte	0xff
 1003 0001 FF       		.byte	0xff
 1004 0002 01       		.byte	0x1
 1005 0003 00       		.uleb128 .LLSDACSE2067-.LLSDACSB2067
 1006              	.LLSDACSB2067:
 1007              	.LLSDACSE2067:
 1008              		.section	.text._ZN5boost6detail12shared_countD2Ev,"axG",@progbits,_ZN5boost6detail12shared_countD5
 1010              		.weak	_ZN5boost6detail12shared_countD1Ev
 1011              		.set	_ZN5boost6detail12shared_countD1Ev,_ZN5boost6detail12shared_countD2Ev
 1012              		.section	.text._ZN5boost6detail12shared_countC2ERKS1_,"axG",@progbits,_ZN5boost6detail12shared_cou
 1013              		.align 2
 1014              		.weak	_ZN5boost6detail12shared_countC2ERKS1_
 1016              	_ZN5boost6detail12shared_countC2ERKS1_:
 1017              	.LFB2070:
 478:/usr/include/boost/smart_ptr/detail/shared_count.hpp **** 
 479:/usr/include/boost/smart_ptr/detail/shared_count.hpp ****     shared_count(shared_count const & r): pi_(r.pi_) // nothrow
 1018              		.loc 6 479 0
 1019              		.cfi_startproc
 1020 0000 55       		pushq	%rbp
 1021              		.cfi_def_cfa_offset 16
 1022              		.cfi_offset 6, -16
 1023 0001 4889E5   		movq	%rsp, %rbp
 1024              		.cfi_def_cfa_register 6
 1025 0004 4883EC10 		subq	$16, %rsp
 1026 0008 48897DF8 		movq	%rdi, -8(%rbp)
GAS LISTING /tmp/ccvUPO8Q.s 			page 43


 1027 000c 488975F0 		movq	%rsi, -16(%rbp)
 1028              	.LBB18:
 1029              		.loc 6 479 0
 1030 0010 488B45F0 		movq	-16(%rbp), %rax
 1031 0014 488B10   		movq	(%rax), %rdx
 1032 0017 488B45F8 		movq	-8(%rbp), %rax
 1033 001b 488910   		movq	%rdx, (%rax)
 480:/usr/include/boost/smart_ptr/detail/shared_count.hpp **** #if defined(BOOST_SP_ENABLE_DEBUG_HOOKS)
 481:/usr/include/boost/smart_ptr/detail/shared_count.hpp ****         , id_(shared_count_id)
 482:/usr/include/boost/smart_ptr/detail/shared_count.hpp **** #endif
 483:/usr/include/boost/smart_ptr/detail/shared_count.hpp ****     {
 484:/usr/include/boost/smart_ptr/detail/shared_count.hpp ****         if( pi_ != 0 ) pi_->add_ref_copy();
 1034              		.loc 6 484 0
 1035 001e 488B45F8 		movq	-8(%rbp), %rax
 1036 0022 488B00   		movq	(%rax), %rax
 1037 0025 4885C0   		testq	%rax, %rax
 1038 0028 740F     		je	.L46
 1039              		.loc 6 484 0 is_stmt 0 discriminator 1
 1040 002a 488B45F8 		movq	-8(%rbp), %rax
 1041 002e 488B00   		movq	(%rax), %rax
 1042 0031 4889C7   		movq	%rax, %rdi
 1043 0034 E8000000 		call	_ZN5boost6detail15sp_counted_base12add_ref_copyEv
 1043      00
 1044              	.L46:
 1045              	.LBE18:
 485:/usr/include/boost/smart_ptr/detail/shared_count.hpp ****     }
 1046              		.loc 6 485 0 is_stmt 1
 1047 0039 90       		nop
 1048 003a C9       		leave
 1049              		.cfi_def_cfa 7, 8
 1050 003b C3       		ret
 1051              		.cfi_endproc
 1052              	.LFE2070:
 1054              		.weak	_ZN5boost6detail12shared_countC1ERKS1_
 1055              		.set	_ZN5boost6detail12shared_countC1ERKS1_,_ZN5boost6detail12shared_countC2ERKS1_
 1056              		.section	.text._ZN5boost6detail12shared_count4swapERS1_,"axG",@progbits,_ZN5boost6detail12shared_c
 1057              		.align 2
 1058              		.weak	_ZN5boost6detail12shared_count4swapERS1_
 1060              	_ZN5boost6detail12shared_count4swapERS1_:
 1061              	.LFB2076:
 486:/usr/include/boost/smart_ptr/detail/shared_count.hpp **** 
 487:/usr/include/boost/smart_ptr/detail/shared_count.hpp **** #if !defined( BOOST_NO_CXX11_RVALUE_REFERENCES )
 488:/usr/include/boost/smart_ptr/detail/shared_count.hpp **** 
 489:/usr/include/boost/smart_ptr/detail/shared_count.hpp ****     shared_count(shared_count && r): pi_(r.pi_) // nothrow
 490:/usr/include/boost/smart_ptr/detail/shared_count.hpp **** #if defined(BOOST_SP_ENABLE_DEBUG_HOOKS)
 491:/usr/include/boost/smart_ptr/detail/shared_count.hpp ****         , id_(shared_count_id)
 492:/usr/include/boost/smart_ptr/detail/shared_count.hpp **** #endif
 493:/usr/include/boost/smart_ptr/detail/shared_count.hpp ****     {
 494:/usr/include/boost/smart_ptr/detail/shared_count.hpp ****         r.pi_ = 0;
 495:/usr/include/boost/smart_ptr/detail/shared_count.hpp ****     }
 496:/usr/include/boost/smart_ptr/detail/shared_count.hpp **** 
 497:/usr/include/boost/smart_ptr/detail/shared_count.hpp **** #endif
 498:/usr/include/boost/smart_ptr/detail/shared_count.hpp **** 
 499:/usr/include/boost/smart_ptr/detail/shared_count.hpp ****     explicit shared_count(weak_count const & r); // throws bad_weak_ptr when r.use_count() == 0
 500:/usr/include/boost/smart_ptr/detail/shared_count.hpp ****     shared_count( weak_count const & r, sp_nothrow_tag ); // constructs an empty *this when r.use_c
 501:/usr/include/boost/smart_ptr/detail/shared_count.hpp **** 
 502:/usr/include/boost/smart_ptr/detail/shared_count.hpp ****     shared_count & operator= (shared_count const & r) // nothrow
GAS LISTING /tmp/ccvUPO8Q.s 			page 44


 503:/usr/include/boost/smart_ptr/detail/shared_count.hpp ****     {
 504:/usr/include/boost/smart_ptr/detail/shared_count.hpp ****         sp_counted_base * tmp = r.pi_;
 505:/usr/include/boost/smart_ptr/detail/shared_count.hpp **** 
 506:/usr/include/boost/smart_ptr/detail/shared_count.hpp ****         if( tmp != pi_ )
 507:/usr/include/boost/smart_ptr/detail/shared_count.hpp ****         {
 508:/usr/include/boost/smart_ptr/detail/shared_count.hpp ****             if( tmp != 0 ) tmp->add_ref_copy();
 509:/usr/include/boost/smart_ptr/detail/shared_count.hpp ****             if( pi_ != 0 ) pi_->release();
 510:/usr/include/boost/smart_ptr/detail/shared_count.hpp ****             pi_ = tmp;
 511:/usr/include/boost/smart_ptr/detail/shared_count.hpp ****         }
 512:/usr/include/boost/smart_ptr/detail/shared_count.hpp **** 
 513:/usr/include/boost/smart_ptr/detail/shared_count.hpp ****         return *this;
 514:/usr/include/boost/smart_ptr/detail/shared_count.hpp ****     }
 515:/usr/include/boost/smart_ptr/detail/shared_count.hpp **** 
 516:/usr/include/boost/smart_ptr/detail/shared_count.hpp ****     void swap(shared_count & r) // nothrow
 1062              		.loc 6 516 0
 1063              		.cfi_startproc
 1064 0000 55       		pushq	%rbp
 1065              		.cfi_def_cfa_offset 16
 1066              		.cfi_offset 6, -16
 1067 0001 4889E5   		movq	%rsp, %rbp
 1068              		.cfi_def_cfa_register 6
 1069 0004 48897DE8 		movq	%rdi, -24(%rbp)
 1070 0008 488975E0 		movq	%rsi, -32(%rbp)
 517:/usr/include/boost/smart_ptr/detail/shared_count.hpp ****     {
 518:/usr/include/boost/smart_ptr/detail/shared_count.hpp ****         sp_counted_base * tmp = r.pi_;
 1071              		.loc 6 518 0
 1072 000c 488B45E0 		movq	-32(%rbp), %rax
 1073 0010 488B00   		movq	(%rax), %rax
 1074 0013 488945F8 		movq	%rax, -8(%rbp)
 519:/usr/include/boost/smart_ptr/detail/shared_count.hpp ****         r.pi_ = pi_;
 1075              		.loc 6 519 0
 1076 0017 488B45E8 		movq	-24(%rbp), %rax
 1077 001b 488B10   		movq	(%rax), %rdx
 1078 001e 488B45E0 		movq	-32(%rbp), %rax
 1079 0022 488910   		movq	%rdx, (%rax)
 520:/usr/include/boost/smart_ptr/detail/shared_count.hpp ****         pi_ = tmp;
 1080              		.loc 6 520 0
 1081 0025 488B45E8 		movq	-24(%rbp), %rax
 1082 0029 488B55F8 		movq	-8(%rbp), %rdx
 1083 002d 488910   		movq	%rdx, (%rax)
 521:/usr/include/boost/smart_ptr/detail/shared_count.hpp ****     }
 1084              		.loc 6 521 0
 1085 0030 90       		nop
 1086 0031 5D       		popq	%rbp
 1087              		.cfi_def_cfa 7, 8
 1088 0032 C3       		ret
 1089              		.cfi_endproc
 1090              	.LFE2076:
 1092              		.section	.text._ZN5boost6detail26sp_enable_shared_from_thisEz,"axG",@progbits,_ZN5boost6detail26sp
 1093              		.weak	_ZN5boost6detail26sp_enable_shared_from_thisEz
 1095              	_ZN5boost6detail26sp_enable_shared_from_thisEz:
 1096              	.LFB2542:
 1097              		.file 7 "/usr/include/boost/smart_ptr/shared_ptr.hpp"
   1:/usr/include/boost/smart_ptr/shared_ptr.hpp **** #ifndef BOOST_SMART_PTR_SHARED_PTR_HPP_INCLUDED
   2:/usr/include/boost/smart_ptr/shared_ptr.hpp **** #define BOOST_SMART_PTR_SHARED_PTR_HPP_INCLUDED
   3:/usr/include/boost/smart_ptr/shared_ptr.hpp **** 
   4:/usr/include/boost/smart_ptr/shared_ptr.hpp **** //
GAS LISTING /tmp/ccvUPO8Q.s 			page 45


   5:/usr/include/boost/smart_ptr/shared_ptr.hpp **** //  shared_ptr.hpp
   6:/usr/include/boost/smart_ptr/shared_ptr.hpp **** //
   7:/usr/include/boost/smart_ptr/shared_ptr.hpp **** //  (C) Copyright Greg Colvin and Beman Dawes 1998, 1999.
   8:/usr/include/boost/smart_ptr/shared_ptr.hpp **** //  Copyright (c) 2001-2008 Peter Dimov
   9:/usr/include/boost/smart_ptr/shared_ptr.hpp **** //
  10:/usr/include/boost/smart_ptr/shared_ptr.hpp **** //  Distributed under the Boost Software License, Version 1.0. (See
  11:/usr/include/boost/smart_ptr/shared_ptr.hpp **** //  accompanying file LICENSE_1_0.txt or copy at
  12:/usr/include/boost/smart_ptr/shared_ptr.hpp **** //  http://www.boost.org/LICENSE_1_0.txt)
  13:/usr/include/boost/smart_ptr/shared_ptr.hpp **** //
  14:/usr/include/boost/smart_ptr/shared_ptr.hpp **** //  See http://www.boost.org/libs/smart_ptr/shared_ptr.htm for documentation.
  15:/usr/include/boost/smart_ptr/shared_ptr.hpp **** //
  16:/usr/include/boost/smart_ptr/shared_ptr.hpp **** 
  17:/usr/include/boost/smart_ptr/shared_ptr.hpp **** #include <boost/config.hpp>   // for broken compiler workarounds
  18:/usr/include/boost/smart_ptr/shared_ptr.hpp **** 
  19:/usr/include/boost/smart_ptr/shared_ptr.hpp **** // In order to avoid circular dependencies with Boost.TR1
  20:/usr/include/boost/smart_ptr/shared_ptr.hpp **** // we make sure that our include of <memory> doesn't try to
  21:/usr/include/boost/smart_ptr/shared_ptr.hpp **** // pull in the TR1 headers: that's why we use this header 
  22:/usr/include/boost/smart_ptr/shared_ptr.hpp **** // rather than including <memory> directly:
  23:/usr/include/boost/smart_ptr/shared_ptr.hpp **** #include <boost/config/no_tr1/memory.hpp>  // std::auto_ptr
  24:/usr/include/boost/smart_ptr/shared_ptr.hpp **** 
  25:/usr/include/boost/smart_ptr/shared_ptr.hpp **** #include <boost/assert.hpp>
  26:/usr/include/boost/smart_ptr/shared_ptr.hpp **** #include <boost/checked_delete.hpp>
  27:/usr/include/boost/smart_ptr/shared_ptr.hpp **** #include <boost/throw_exception.hpp>
  28:/usr/include/boost/smart_ptr/shared_ptr.hpp **** #include <boost/smart_ptr/detail/shared_count.hpp>
  29:/usr/include/boost/smart_ptr/shared_ptr.hpp **** #include <boost/detail/workaround.hpp>
  30:/usr/include/boost/smart_ptr/shared_ptr.hpp **** #include <boost/smart_ptr/detail/sp_convertible.hpp>
  31:/usr/include/boost/smart_ptr/shared_ptr.hpp **** #include <boost/smart_ptr/detail/sp_nullptr_t.hpp>
  32:/usr/include/boost/smart_ptr/shared_ptr.hpp **** #include <boost/smart_ptr/detail/sp_disable_deprecated.hpp>
  33:/usr/include/boost/smart_ptr/shared_ptr.hpp **** 
  34:/usr/include/boost/smart_ptr/shared_ptr.hpp **** #if !defined(BOOST_SP_NO_ATOMIC_ACCESS)
  35:/usr/include/boost/smart_ptr/shared_ptr.hpp **** #include <boost/smart_ptr/detail/spinlock_pool.hpp>
  36:/usr/include/boost/smart_ptr/shared_ptr.hpp **** #endif
  37:/usr/include/boost/smart_ptr/shared_ptr.hpp **** 
  38:/usr/include/boost/smart_ptr/shared_ptr.hpp **** #include <algorithm>            // for std::swap
  39:/usr/include/boost/smart_ptr/shared_ptr.hpp **** #include <functional>           // for std::less
  40:/usr/include/boost/smart_ptr/shared_ptr.hpp **** #include <typeinfo>             // for std::bad_cast
  41:/usr/include/boost/smart_ptr/shared_ptr.hpp **** #include <cstddef>              // for std::size_t
  42:/usr/include/boost/smart_ptr/shared_ptr.hpp **** 
  43:/usr/include/boost/smart_ptr/shared_ptr.hpp **** #if !defined(BOOST_NO_IOSTREAM)
  44:/usr/include/boost/smart_ptr/shared_ptr.hpp **** #if !defined(BOOST_NO_IOSFWD)
  45:/usr/include/boost/smart_ptr/shared_ptr.hpp **** #include <iosfwd>               // for std::basic_ostream
  46:/usr/include/boost/smart_ptr/shared_ptr.hpp **** #else
  47:/usr/include/boost/smart_ptr/shared_ptr.hpp **** #include <ostream>
  48:/usr/include/boost/smart_ptr/shared_ptr.hpp **** #endif
  49:/usr/include/boost/smart_ptr/shared_ptr.hpp **** #endif
  50:/usr/include/boost/smart_ptr/shared_ptr.hpp **** 
  51:/usr/include/boost/smart_ptr/shared_ptr.hpp **** #if defined( BOOST_SP_DISABLE_DEPRECATED )
  52:/usr/include/boost/smart_ptr/shared_ptr.hpp **** #pragma GCC diagnostic push
  53:/usr/include/boost/smart_ptr/shared_ptr.hpp **** #pragma GCC diagnostic ignored "-Wdeprecated-declarations"
  54:/usr/include/boost/smart_ptr/shared_ptr.hpp **** #endif
  55:/usr/include/boost/smart_ptr/shared_ptr.hpp **** 
  56:/usr/include/boost/smart_ptr/shared_ptr.hpp **** namespace boost
  57:/usr/include/boost/smart_ptr/shared_ptr.hpp **** {
  58:/usr/include/boost/smart_ptr/shared_ptr.hpp **** 
  59:/usr/include/boost/smart_ptr/shared_ptr.hpp **** template<class T> class shared_ptr;
  60:/usr/include/boost/smart_ptr/shared_ptr.hpp **** template<class T> class weak_ptr;
  61:/usr/include/boost/smart_ptr/shared_ptr.hpp **** template<class T> class enable_shared_from_this;
GAS LISTING /tmp/ccvUPO8Q.s 			page 46


  62:/usr/include/boost/smart_ptr/shared_ptr.hpp **** class enable_shared_from_raw;
  63:/usr/include/boost/smart_ptr/shared_ptr.hpp **** 
  64:/usr/include/boost/smart_ptr/shared_ptr.hpp **** namespace movelib
  65:/usr/include/boost/smart_ptr/shared_ptr.hpp **** {
  66:/usr/include/boost/smart_ptr/shared_ptr.hpp **** 
  67:/usr/include/boost/smart_ptr/shared_ptr.hpp ****     template< class T, class D > class unique_ptr;
  68:/usr/include/boost/smart_ptr/shared_ptr.hpp **** 
  69:/usr/include/boost/smart_ptr/shared_ptr.hpp **** } // namespace movelib
  70:/usr/include/boost/smart_ptr/shared_ptr.hpp **** 
  71:/usr/include/boost/smart_ptr/shared_ptr.hpp **** namespace detail
  72:/usr/include/boost/smart_ptr/shared_ptr.hpp **** {
  73:/usr/include/boost/smart_ptr/shared_ptr.hpp **** 
  74:/usr/include/boost/smart_ptr/shared_ptr.hpp **** // sp_element, element_type
  75:/usr/include/boost/smart_ptr/shared_ptr.hpp **** 
  76:/usr/include/boost/smart_ptr/shared_ptr.hpp **** template< class T > struct sp_element
  77:/usr/include/boost/smart_ptr/shared_ptr.hpp **** {
  78:/usr/include/boost/smart_ptr/shared_ptr.hpp ****     typedef T type;
  79:/usr/include/boost/smart_ptr/shared_ptr.hpp **** };
  80:/usr/include/boost/smart_ptr/shared_ptr.hpp **** 
  81:/usr/include/boost/smart_ptr/shared_ptr.hpp **** #if !defined( BOOST_NO_TEMPLATE_PARTIAL_SPECIALIZATION )
  82:/usr/include/boost/smart_ptr/shared_ptr.hpp **** 
  83:/usr/include/boost/smart_ptr/shared_ptr.hpp **** template< class T > struct sp_element< T[] >
  84:/usr/include/boost/smart_ptr/shared_ptr.hpp **** {
  85:/usr/include/boost/smart_ptr/shared_ptr.hpp ****     typedef T type;
  86:/usr/include/boost/smart_ptr/shared_ptr.hpp **** };
  87:/usr/include/boost/smart_ptr/shared_ptr.hpp **** 
  88:/usr/include/boost/smart_ptr/shared_ptr.hpp **** #if !defined( __BORLANDC__ ) || !BOOST_WORKAROUND( __BORLANDC__, < 0x600 )
  89:/usr/include/boost/smart_ptr/shared_ptr.hpp **** 
  90:/usr/include/boost/smart_ptr/shared_ptr.hpp **** template< class T, std::size_t N > struct sp_element< T[N] >
  91:/usr/include/boost/smart_ptr/shared_ptr.hpp **** {
  92:/usr/include/boost/smart_ptr/shared_ptr.hpp ****     typedef T type;
  93:/usr/include/boost/smart_ptr/shared_ptr.hpp **** };
  94:/usr/include/boost/smart_ptr/shared_ptr.hpp **** 
  95:/usr/include/boost/smart_ptr/shared_ptr.hpp **** #endif
  96:/usr/include/boost/smart_ptr/shared_ptr.hpp **** 
  97:/usr/include/boost/smart_ptr/shared_ptr.hpp **** #endif // !defined( BOOST_NO_TEMPLATE_PARTIAL_SPECIALIZATION )
  98:/usr/include/boost/smart_ptr/shared_ptr.hpp **** 
  99:/usr/include/boost/smart_ptr/shared_ptr.hpp **** // sp_dereference, return type of operator*
 100:/usr/include/boost/smart_ptr/shared_ptr.hpp **** 
 101:/usr/include/boost/smart_ptr/shared_ptr.hpp **** template< class T > struct sp_dereference
 102:/usr/include/boost/smart_ptr/shared_ptr.hpp **** {
 103:/usr/include/boost/smart_ptr/shared_ptr.hpp ****     typedef T & type;
 104:/usr/include/boost/smart_ptr/shared_ptr.hpp **** };
 105:/usr/include/boost/smart_ptr/shared_ptr.hpp **** 
 106:/usr/include/boost/smart_ptr/shared_ptr.hpp **** template<> struct sp_dereference< void >
 107:/usr/include/boost/smart_ptr/shared_ptr.hpp **** {
 108:/usr/include/boost/smart_ptr/shared_ptr.hpp ****     typedef void type;
 109:/usr/include/boost/smart_ptr/shared_ptr.hpp **** };
 110:/usr/include/boost/smart_ptr/shared_ptr.hpp **** 
 111:/usr/include/boost/smart_ptr/shared_ptr.hpp **** #if !defined(BOOST_NO_CV_VOID_SPECIALIZATIONS)
 112:/usr/include/boost/smart_ptr/shared_ptr.hpp **** 
 113:/usr/include/boost/smart_ptr/shared_ptr.hpp **** template<> struct sp_dereference< void const >
 114:/usr/include/boost/smart_ptr/shared_ptr.hpp **** {
 115:/usr/include/boost/smart_ptr/shared_ptr.hpp ****     typedef void type;
 116:/usr/include/boost/smart_ptr/shared_ptr.hpp **** };
 117:/usr/include/boost/smart_ptr/shared_ptr.hpp **** 
 118:/usr/include/boost/smart_ptr/shared_ptr.hpp **** template<> struct sp_dereference< void volatile >
GAS LISTING /tmp/ccvUPO8Q.s 			page 47


 119:/usr/include/boost/smart_ptr/shared_ptr.hpp **** {
 120:/usr/include/boost/smart_ptr/shared_ptr.hpp ****     typedef void type;
 121:/usr/include/boost/smart_ptr/shared_ptr.hpp **** };
 122:/usr/include/boost/smart_ptr/shared_ptr.hpp **** 
 123:/usr/include/boost/smart_ptr/shared_ptr.hpp **** template<> struct sp_dereference< void const volatile >
 124:/usr/include/boost/smart_ptr/shared_ptr.hpp **** {
 125:/usr/include/boost/smart_ptr/shared_ptr.hpp ****     typedef void type;
 126:/usr/include/boost/smart_ptr/shared_ptr.hpp **** };
 127:/usr/include/boost/smart_ptr/shared_ptr.hpp **** 
 128:/usr/include/boost/smart_ptr/shared_ptr.hpp **** #endif // !defined(BOOST_NO_CV_VOID_SPECIALIZATIONS)
 129:/usr/include/boost/smart_ptr/shared_ptr.hpp **** 
 130:/usr/include/boost/smart_ptr/shared_ptr.hpp **** #if !defined( BOOST_NO_TEMPLATE_PARTIAL_SPECIALIZATION )
 131:/usr/include/boost/smart_ptr/shared_ptr.hpp **** 
 132:/usr/include/boost/smart_ptr/shared_ptr.hpp **** template< class T > struct sp_dereference< T[] >
 133:/usr/include/boost/smart_ptr/shared_ptr.hpp **** {
 134:/usr/include/boost/smart_ptr/shared_ptr.hpp ****     typedef void type;
 135:/usr/include/boost/smart_ptr/shared_ptr.hpp **** };
 136:/usr/include/boost/smart_ptr/shared_ptr.hpp **** 
 137:/usr/include/boost/smart_ptr/shared_ptr.hpp **** #if !defined( __BORLANDC__ ) || !BOOST_WORKAROUND( __BORLANDC__, < 0x600 )
 138:/usr/include/boost/smart_ptr/shared_ptr.hpp **** 
 139:/usr/include/boost/smart_ptr/shared_ptr.hpp **** template< class T, std::size_t N > struct sp_dereference< T[N] >
 140:/usr/include/boost/smart_ptr/shared_ptr.hpp **** {
 141:/usr/include/boost/smart_ptr/shared_ptr.hpp ****     typedef void type;
 142:/usr/include/boost/smart_ptr/shared_ptr.hpp **** };
 143:/usr/include/boost/smart_ptr/shared_ptr.hpp **** 
 144:/usr/include/boost/smart_ptr/shared_ptr.hpp **** #endif
 145:/usr/include/boost/smart_ptr/shared_ptr.hpp **** 
 146:/usr/include/boost/smart_ptr/shared_ptr.hpp **** #endif // !defined( BOOST_NO_TEMPLATE_PARTIAL_SPECIALIZATION )
 147:/usr/include/boost/smart_ptr/shared_ptr.hpp **** 
 148:/usr/include/boost/smart_ptr/shared_ptr.hpp **** // sp_member_access, return type of operator->
 149:/usr/include/boost/smart_ptr/shared_ptr.hpp **** 
 150:/usr/include/boost/smart_ptr/shared_ptr.hpp **** template< class T > struct sp_member_access
 151:/usr/include/boost/smart_ptr/shared_ptr.hpp **** {
 152:/usr/include/boost/smart_ptr/shared_ptr.hpp ****     typedef T * type;
 153:/usr/include/boost/smart_ptr/shared_ptr.hpp **** };
 154:/usr/include/boost/smart_ptr/shared_ptr.hpp **** 
 155:/usr/include/boost/smart_ptr/shared_ptr.hpp **** #if !defined( BOOST_NO_TEMPLATE_PARTIAL_SPECIALIZATION )
 156:/usr/include/boost/smart_ptr/shared_ptr.hpp **** 
 157:/usr/include/boost/smart_ptr/shared_ptr.hpp **** template< class T > struct sp_member_access< T[] >
 158:/usr/include/boost/smart_ptr/shared_ptr.hpp **** {
 159:/usr/include/boost/smart_ptr/shared_ptr.hpp ****     typedef void type;
 160:/usr/include/boost/smart_ptr/shared_ptr.hpp **** };
 161:/usr/include/boost/smart_ptr/shared_ptr.hpp **** 
 162:/usr/include/boost/smart_ptr/shared_ptr.hpp **** #if !defined( __BORLANDC__ ) || !BOOST_WORKAROUND( __BORLANDC__, < 0x600 )
 163:/usr/include/boost/smart_ptr/shared_ptr.hpp **** 
 164:/usr/include/boost/smart_ptr/shared_ptr.hpp **** template< class T, std::size_t N > struct sp_member_access< T[N] >
 165:/usr/include/boost/smart_ptr/shared_ptr.hpp **** {
 166:/usr/include/boost/smart_ptr/shared_ptr.hpp ****     typedef void type;
 167:/usr/include/boost/smart_ptr/shared_ptr.hpp **** };
 168:/usr/include/boost/smart_ptr/shared_ptr.hpp **** 
 169:/usr/include/boost/smart_ptr/shared_ptr.hpp **** #endif
 170:/usr/include/boost/smart_ptr/shared_ptr.hpp **** 
 171:/usr/include/boost/smart_ptr/shared_ptr.hpp **** #endif // !defined( BOOST_NO_TEMPLATE_PARTIAL_SPECIALIZATION )
 172:/usr/include/boost/smart_ptr/shared_ptr.hpp **** 
 173:/usr/include/boost/smart_ptr/shared_ptr.hpp **** // sp_array_access, return type of operator[]
 174:/usr/include/boost/smart_ptr/shared_ptr.hpp **** 
 175:/usr/include/boost/smart_ptr/shared_ptr.hpp **** template< class T > struct sp_array_access
GAS LISTING /tmp/ccvUPO8Q.s 			page 48


 176:/usr/include/boost/smart_ptr/shared_ptr.hpp **** {
 177:/usr/include/boost/smart_ptr/shared_ptr.hpp ****     typedef void type;
 178:/usr/include/boost/smart_ptr/shared_ptr.hpp **** };
 179:/usr/include/boost/smart_ptr/shared_ptr.hpp **** 
 180:/usr/include/boost/smart_ptr/shared_ptr.hpp **** #if !defined( BOOST_NO_TEMPLATE_PARTIAL_SPECIALIZATION )
 181:/usr/include/boost/smart_ptr/shared_ptr.hpp **** 
 182:/usr/include/boost/smart_ptr/shared_ptr.hpp **** template< class T > struct sp_array_access< T[] >
 183:/usr/include/boost/smart_ptr/shared_ptr.hpp **** {
 184:/usr/include/boost/smart_ptr/shared_ptr.hpp ****     typedef T & type;
 185:/usr/include/boost/smart_ptr/shared_ptr.hpp **** };
 186:/usr/include/boost/smart_ptr/shared_ptr.hpp **** 
 187:/usr/include/boost/smart_ptr/shared_ptr.hpp **** #if !defined( __BORLANDC__ ) || !BOOST_WORKAROUND( __BORLANDC__, < 0x600 )
 188:/usr/include/boost/smart_ptr/shared_ptr.hpp **** 
 189:/usr/include/boost/smart_ptr/shared_ptr.hpp **** template< class T, std::size_t N > struct sp_array_access< T[N] >
 190:/usr/include/boost/smart_ptr/shared_ptr.hpp **** {
 191:/usr/include/boost/smart_ptr/shared_ptr.hpp ****     typedef T & type;
 192:/usr/include/boost/smart_ptr/shared_ptr.hpp **** };
 193:/usr/include/boost/smart_ptr/shared_ptr.hpp **** 
 194:/usr/include/boost/smart_ptr/shared_ptr.hpp **** #endif
 195:/usr/include/boost/smart_ptr/shared_ptr.hpp **** 
 196:/usr/include/boost/smart_ptr/shared_ptr.hpp **** #endif // !defined( BOOST_NO_TEMPLATE_PARTIAL_SPECIALIZATION )
 197:/usr/include/boost/smart_ptr/shared_ptr.hpp **** 
 198:/usr/include/boost/smart_ptr/shared_ptr.hpp **** // sp_extent, for operator[] index check
 199:/usr/include/boost/smart_ptr/shared_ptr.hpp **** 
 200:/usr/include/boost/smart_ptr/shared_ptr.hpp **** template< class T > struct sp_extent
 201:/usr/include/boost/smart_ptr/shared_ptr.hpp **** {
 202:/usr/include/boost/smart_ptr/shared_ptr.hpp ****     enum _vt { value = 0 };
 203:/usr/include/boost/smart_ptr/shared_ptr.hpp **** };
 204:/usr/include/boost/smart_ptr/shared_ptr.hpp **** 
 205:/usr/include/boost/smart_ptr/shared_ptr.hpp **** #if !defined( BOOST_NO_TEMPLATE_PARTIAL_SPECIALIZATION )
 206:/usr/include/boost/smart_ptr/shared_ptr.hpp **** 
 207:/usr/include/boost/smart_ptr/shared_ptr.hpp **** template< class T, std::size_t N > struct sp_extent< T[N] >
 208:/usr/include/boost/smart_ptr/shared_ptr.hpp **** {
 209:/usr/include/boost/smart_ptr/shared_ptr.hpp ****     enum _vt { value = N };
 210:/usr/include/boost/smart_ptr/shared_ptr.hpp **** };
 211:/usr/include/boost/smart_ptr/shared_ptr.hpp **** 
 212:/usr/include/boost/smart_ptr/shared_ptr.hpp **** #endif // !defined( BOOST_NO_TEMPLATE_PARTIAL_SPECIALIZATION )
 213:/usr/include/boost/smart_ptr/shared_ptr.hpp **** 
 214:/usr/include/boost/smart_ptr/shared_ptr.hpp **** // enable_shared_from_this support
 215:/usr/include/boost/smart_ptr/shared_ptr.hpp **** 
 216:/usr/include/boost/smart_ptr/shared_ptr.hpp **** template< class X, class Y, class T > inline void sp_enable_shared_from_this( boost::shared_ptr<X> 
 217:/usr/include/boost/smart_ptr/shared_ptr.hpp **** {
 218:/usr/include/boost/smart_ptr/shared_ptr.hpp ****     if( pe != 0 )
 219:/usr/include/boost/smart_ptr/shared_ptr.hpp ****     {
 220:/usr/include/boost/smart_ptr/shared_ptr.hpp ****         pe->_internal_accept_owner( ppx, const_cast< Y* >( py ) );
 221:/usr/include/boost/smart_ptr/shared_ptr.hpp ****     }
 222:/usr/include/boost/smart_ptr/shared_ptr.hpp **** }
 223:/usr/include/boost/smart_ptr/shared_ptr.hpp **** 
 224:/usr/include/boost/smart_ptr/shared_ptr.hpp **** template< class X, class Y > inline void sp_enable_shared_from_this( boost::shared_ptr<X> * ppx, Y 
 225:/usr/include/boost/smart_ptr/shared_ptr.hpp **** 
 226:/usr/include/boost/smart_ptr/shared_ptr.hpp **** #ifdef _MANAGED
 227:/usr/include/boost/smart_ptr/shared_ptr.hpp **** 
 228:/usr/include/boost/smart_ptr/shared_ptr.hpp **** // Avoid C4793, ... causes native code generation
 229:/usr/include/boost/smart_ptr/shared_ptr.hpp **** 
 230:/usr/include/boost/smart_ptr/shared_ptr.hpp **** struct sp_any_pointer
 231:/usr/include/boost/smart_ptr/shared_ptr.hpp **** {
 232:/usr/include/boost/smart_ptr/shared_ptr.hpp ****     template<class T> sp_any_pointer( T* ) {}
GAS LISTING /tmp/ccvUPO8Q.s 			page 49


 233:/usr/include/boost/smart_ptr/shared_ptr.hpp **** };
 234:/usr/include/boost/smart_ptr/shared_ptr.hpp **** 
 235:/usr/include/boost/smart_ptr/shared_ptr.hpp **** inline void sp_enable_shared_from_this( sp_any_pointer, sp_any_pointer, sp_any_pointer )
 236:/usr/include/boost/smart_ptr/shared_ptr.hpp **** {
 237:/usr/include/boost/smart_ptr/shared_ptr.hpp **** }
 238:/usr/include/boost/smart_ptr/shared_ptr.hpp **** 
 239:/usr/include/boost/smart_ptr/shared_ptr.hpp **** #else // _MANAGED
 240:/usr/include/boost/smart_ptr/shared_ptr.hpp **** 
 241:/usr/include/boost/smart_ptr/shared_ptr.hpp **** inline void sp_enable_shared_from_this( ... )
 242:/usr/include/boost/smart_ptr/shared_ptr.hpp **** {
 1098              		.loc 7 242 0
 1099              		.cfi_startproc
 1100 0000 55       		pushq	%rbp
 1101              		.cfi_def_cfa_offset 16
 1102              		.cfi_offset 6, -16
 1103 0001 4889E5   		movq	%rsp, %rbp
 1104              		.cfi_def_cfa_register 6
 243:/usr/include/boost/smart_ptr/shared_ptr.hpp **** }
 1105              		.loc 7 243 0
 1106 0004 90       		nop
 1107 0005 5D       		popq	%rbp
 1108              		.cfi_def_cfa 7, 8
 1109 0006 C3       		ret
 1110              		.cfi_endproc
 1111              	.LFE2542:
 1113              		.section	.text._ZSt3absf,"axG",@progbits,_ZSt3absf,comdat
 1114              		.weak	_ZSt3absf
 1116              	_ZSt3absf:
 1117              	.LFB2921:
 1118              		.file 8 "/usr/include/c++/6/cmath"
   1:/usr/include/c++/6/cmath **** // -*- C++ -*- C forwarding header.
   2:/usr/include/c++/6/cmath **** 
   3:/usr/include/c++/6/cmath **** // Copyright (C) 1997-2016 Free Software Foundation, Inc.
   4:/usr/include/c++/6/cmath **** //
   5:/usr/include/c++/6/cmath **** // This file is part of the GNU ISO C++ Library.  This library is free
   6:/usr/include/c++/6/cmath **** // software; you can redistribute it and/or modify it under the
   7:/usr/include/c++/6/cmath **** // terms of the GNU General Public License as published by the
   8:/usr/include/c++/6/cmath **** // Free Software Foundation; either version 3, or (at your option)
   9:/usr/include/c++/6/cmath **** // any later version.
  10:/usr/include/c++/6/cmath **** 
  11:/usr/include/c++/6/cmath **** // This library is distributed in the hope that it will be useful,
  12:/usr/include/c++/6/cmath **** // but WITHOUT ANY WARRANTY; without even the implied warranty of
  13:/usr/include/c++/6/cmath **** // MERCHANTABILITY or FITNESS FOR A PARTICULAR PURPOSE.  See the
  14:/usr/include/c++/6/cmath **** // GNU General Public License for more details.
  15:/usr/include/c++/6/cmath **** 
  16:/usr/include/c++/6/cmath **** // Under Section 7 of GPL version 3, you are granted additional
  17:/usr/include/c++/6/cmath **** // permissions described in the GCC Runtime Library Exception, version
  18:/usr/include/c++/6/cmath **** // 3.1, as published by the Free Software Foundation.
  19:/usr/include/c++/6/cmath **** 
  20:/usr/include/c++/6/cmath **** // You should have received a copy of the GNU General Public License and
  21:/usr/include/c++/6/cmath **** // a copy of the GCC Runtime Library Exception along with this program;
  22:/usr/include/c++/6/cmath **** // see the files COPYING3 and COPYING.RUNTIME respectively.  If not, see
  23:/usr/include/c++/6/cmath **** // <http://www.gnu.org/licenses/>.
  24:/usr/include/c++/6/cmath **** 
  25:/usr/include/c++/6/cmath **** /** @file include/cmath
  26:/usr/include/c++/6/cmath ****  *  This is a Standard C++ Library file.  You should @c \#include this file
  27:/usr/include/c++/6/cmath ****  *  in your programs, rather than any of the @a *.h implementation files.
GAS LISTING /tmp/ccvUPO8Q.s 			page 50


  28:/usr/include/c++/6/cmath ****  *
  29:/usr/include/c++/6/cmath ****  *  This is the C++ version of the Standard C Library header @c math.h,
  30:/usr/include/c++/6/cmath ****  *  and its contents are (mostly) the same as that header, but are all
  31:/usr/include/c++/6/cmath ****  *  contained in the namespace @c std (except for names which are defined
  32:/usr/include/c++/6/cmath ****  *  as macros in C).
  33:/usr/include/c++/6/cmath ****  */
  34:/usr/include/c++/6/cmath **** 
  35:/usr/include/c++/6/cmath **** //
  36:/usr/include/c++/6/cmath **** // ISO C++ 14882: 26.5  C library
  37:/usr/include/c++/6/cmath **** //
  38:/usr/include/c++/6/cmath **** 
  39:/usr/include/c++/6/cmath **** #pragma GCC system_header
  40:/usr/include/c++/6/cmath **** 
  41:/usr/include/c++/6/cmath **** #include <bits/c++config.h>
  42:/usr/include/c++/6/cmath **** #include <bits/cpp_type_traits.h>
  43:/usr/include/c++/6/cmath **** #include <ext/type_traits.h>
  44:/usr/include/c++/6/cmath **** #define _GLIBCXX_INCLUDE_NEXT_C_HEADERS
  45:/usr/include/c++/6/cmath **** #include_next <math.h>
  46:/usr/include/c++/6/cmath **** #undef _GLIBCXX_INCLUDE_NEXT_C_HEADERS
  47:/usr/include/c++/6/cmath **** 
  48:/usr/include/c++/6/cmath **** #ifndef _GLIBCXX_CMATH
  49:/usr/include/c++/6/cmath **** #define _GLIBCXX_CMATH 1
  50:/usr/include/c++/6/cmath **** 
  51:/usr/include/c++/6/cmath **** // Get rid of those macros defined in <math.h> in lieu of real functions.
  52:/usr/include/c++/6/cmath **** #undef abs
  53:/usr/include/c++/6/cmath **** #undef div
  54:/usr/include/c++/6/cmath **** #undef acos
  55:/usr/include/c++/6/cmath **** #undef asin
  56:/usr/include/c++/6/cmath **** #undef atan
  57:/usr/include/c++/6/cmath **** #undef atan2
  58:/usr/include/c++/6/cmath **** #undef ceil
  59:/usr/include/c++/6/cmath **** #undef cos
  60:/usr/include/c++/6/cmath **** #undef cosh
  61:/usr/include/c++/6/cmath **** #undef exp
  62:/usr/include/c++/6/cmath **** #undef fabs
  63:/usr/include/c++/6/cmath **** #undef floor
  64:/usr/include/c++/6/cmath **** #undef fmod
  65:/usr/include/c++/6/cmath **** #undef frexp
  66:/usr/include/c++/6/cmath **** #undef ldexp
  67:/usr/include/c++/6/cmath **** #undef log
  68:/usr/include/c++/6/cmath **** #undef log10
  69:/usr/include/c++/6/cmath **** #undef modf
  70:/usr/include/c++/6/cmath **** #undef pow
  71:/usr/include/c++/6/cmath **** #undef sin
  72:/usr/include/c++/6/cmath **** #undef sinh
  73:/usr/include/c++/6/cmath **** #undef sqrt
  74:/usr/include/c++/6/cmath **** #undef tan
  75:/usr/include/c++/6/cmath **** #undef tanh
  76:/usr/include/c++/6/cmath **** 
  77:/usr/include/c++/6/cmath **** extern "C++"
  78:/usr/include/c++/6/cmath **** {
  79:/usr/include/c++/6/cmath **** namespace std _GLIBCXX_VISIBILITY(default)
  80:/usr/include/c++/6/cmath **** {
  81:/usr/include/c++/6/cmath **** _GLIBCXX_BEGIN_NAMESPACE_VERSION
  82:/usr/include/c++/6/cmath **** 
  83:/usr/include/c++/6/cmath **** #ifndef __CORRECT_ISO_CPP_MATH_H_PROTO
  84:/usr/include/c++/6/cmath ****   inline _GLIBCXX_CONSTEXPR double
GAS LISTING /tmp/ccvUPO8Q.s 			page 51


  85:/usr/include/c++/6/cmath ****   abs(double __x)
  86:/usr/include/c++/6/cmath ****   { return __builtin_fabs(__x); }
  87:/usr/include/c++/6/cmath **** #endif
  88:/usr/include/c++/6/cmath **** 
  89:/usr/include/c++/6/cmath **** #ifndef __CORRECT_ISO_CPP_MATH_H_PROTO
  90:/usr/include/c++/6/cmath ****   inline _GLIBCXX_CONSTEXPR float
  91:/usr/include/c++/6/cmath ****   abs(float __x)
  92:/usr/include/c++/6/cmath ****   { return __builtin_fabsf(__x); }
 1119              		.loc 8 92 0
 1120              		.cfi_startproc
 1121 0000 55       		pushq	%rbp
 1122              		.cfi_def_cfa_offset 16
 1123              		.cfi_offset 6, -16
 1124 0001 4889E5   		movq	%rsp, %rbp
 1125              		.cfi_def_cfa_register 6
 1126 0004 C5FA1145 		vmovss	%xmm0, -4(%rbp)
 1126      FC
 1127              		.loc 8 92 0
 1128 0009 C5FA104D 		vmovss	-4(%rbp), %xmm1
 1128      FC
 1129 000e C5FA1005 		vmovss	.LC0(%rip), %xmm0
 1129      00000000 
 1130 0016 C5F854C1 		vandps	%xmm1, %xmm0, %xmm0
 1131 001a 5D       		popq	%rbp
 1132              		.cfi_def_cfa 7, 8
 1133 001b C3       		ret
 1134              		.cfi_endproc
 1135              	.LFE2921:
 1137              		.section	.text._ZNSt7complexIfEC2Eff,"axG",@progbits,_ZNSt7complexIfEC5Eff,comdat
 1138              		.align 2
 1139              		.weak	_ZNSt7complexIfEC2Eff
 1141              	_ZNSt7complexIfEC2Eff:
 1142              	.LFB3816:
 1143              		.file 9 "/usr/include/c++/6/complex"
   1:/usr/include/c++/6/complex **** // The template and inlines for the -*- C++ -*- complex number classes.
   2:/usr/include/c++/6/complex **** 
   3:/usr/include/c++/6/complex **** // Copyright (C) 1997-2016 Free Software Foundation, Inc.
   4:/usr/include/c++/6/complex **** //
   5:/usr/include/c++/6/complex **** // This file is part of the GNU ISO C++ Library.  This library is free
   6:/usr/include/c++/6/complex **** // software; you can redistribute it and/or modify it under the
   7:/usr/include/c++/6/complex **** // terms of the GNU General Public License as published by the
   8:/usr/include/c++/6/complex **** // Free Software Foundation; either version 3, or (at your option)
   9:/usr/include/c++/6/complex **** // any later version.
  10:/usr/include/c++/6/complex **** 
  11:/usr/include/c++/6/complex **** // This library is distributed in the hope that it will be useful,
  12:/usr/include/c++/6/complex **** // but WITHOUT ANY WARRANTY; without even the implied warranty of
  13:/usr/include/c++/6/complex **** // MERCHANTABILITY or FITNESS FOR A PARTICULAR PURPOSE.  See the
  14:/usr/include/c++/6/complex **** // GNU General Public License for more details.
  15:/usr/include/c++/6/complex **** 
  16:/usr/include/c++/6/complex **** // Under Section 7 of GPL version 3, you are granted additional
  17:/usr/include/c++/6/complex **** // permissions described in the GCC Runtime Library Exception, version
  18:/usr/include/c++/6/complex **** // 3.1, as published by the Free Software Foundation.
  19:/usr/include/c++/6/complex **** 
  20:/usr/include/c++/6/complex **** // You should have received a copy of the GNU General Public License and
  21:/usr/include/c++/6/complex **** // a copy of the GCC Runtime Library Exception along with this program;
  22:/usr/include/c++/6/complex **** // see the files COPYING3 and COPYING.RUNTIME respectively.  If not, see
  23:/usr/include/c++/6/complex **** // <http://www.gnu.org/licenses/>.
GAS LISTING /tmp/ccvUPO8Q.s 			page 52


  24:/usr/include/c++/6/complex **** 
  25:/usr/include/c++/6/complex **** /** @file include/complex
  26:/usr/include/c++/6/complex ****  *  This is a Standard C++ Library header.
  27:/usr/include/c++/6/complex ****  */
  28:/usr/include/c++/6/complex **** 
  29:/usr/include/c++/6/complex **** //
  30:/usr/include/c++/6/complex **** // ISO C++ 14882: 26.2  Complex Numbers
  31:/usr/include/c++/6/complex **** // Note: this is not a conforming implementation.
  32:/usr/include/c++/6/complex **** // Initially implemented by Ulrich Drepper <drepper@cygnus.com>
  33:/usr/include/c++/6/complex **** // Improved by Gabriel Dos Reis <dosreis@cmla.ens-cachan.fr>
  34:/usr/include/c++/6/complex **** //
  35:/usr/include/c++/6/complex **** 
  36:/usr/include/c++/6/complex **** #ifndef _GLIBCXX_COMPLEX
  37:/usr/include/c++/6/complex **** #define _GLIBCXX_COMPLEX 1
  38:/usr/include/c++/6/complex **** 
  39:/usr/include/c++/6/complex **** #pragma GCC system_header
  40:/usr/include/c++/6/complex **** 
  41:/usr/include/c++/6/complex **** #include <bits/c++config.h>
  42:/usr/include/c++/6/complex **** #include <bits/cpp_type_traits.h>
  43:/usr/include/c++/6/complex **** #include <ext/type_traits.h>
  44:/usr/include/c++/6/complex **** #include <cmath>
  45:/usr/include/c++/6/complex **** #include <sstream>
  46:/usr/include/c++/6/complex **** 
  47:/usr/include/c++/6/complex **** // Get rid of a macro possibly defined in <complex.h>
  48:/usr/include/c++/6/complex **** #undef complex
  49:/usr/include/c++/6/complex **** 
  50:/usr/include/c++/6/complex **** namespace std _GLIBCXX_VISIBILITY(default)
  51:/usr/include/c++/6/complex **** {
  52:/usr/include/c++/6/complex **** _GLIBCXX_BEGIN_NAMESPACE_VERSION
  53:/usr/include/c++/6/complex **** 
  54:/usr/include/c++/6/complex ****   /**
  55:/usr/include/c++/6/complex ****    * @defgroup complex_numbers Complex Numbers
  56:/usr/include/c++/6/complex ****    * @ingroup numerics
  57:/usr/include/c++/6/complex ****    *
  58:/usr/include/c++/6/complex ****    * Classes and functions for complex numbers.
  59:/usr/include/c++/6/complex ****    * @{
  60:/usr/include/c++/6/complex ****    */
  61:/usr/include/c++/6/complex **** 
  62:/usr/include/c++/6/complex ****   // Forward declarations.
  63:/usr/include/c++/6/complex ****   template<typename _Tp> class complex;
  64:/usr/include/c++/6/complex ****   template<> class complex<float>;
  65:/usr/include/c++/6/complex ****   template<> class complex<double>;
  66:/usr/include/c++/6/complex ****   template<> class complex<long double>;
  67:/usr/include/c++/6/complex **** 
  68:/usr/include/c++/6/complex ****   ///  Return magnitude of @a z.
  69:/usr/include/c++/6/complex ****   template<typename _Tp> _Tp abs(const complex<_Tp>&);
  70:/usr/include/c++/6/complex ****   ///  Return phase angle of @a z.
  71:/usr/include/c++/6/complex ****   template<typename _Tp> _Tp arg(const complex<_Tp>&);
  72:/usr/include/c++/6/complex ****   ///  Return @a z magnitude squared.
  73:/usr/include/c++/6/complex ****   template<typename _Tp> _Tp norm(const complex<_Tp>&);
  74:/usr/include/c++/6/complex **** 
  75:/usr/include/c++/6/complex ****   ///  Return complex conjugate of @a z.
  76:/usr/include/c++/6/complex ****   template<typename _Tp> complex<_Tp> conj(const complex<_Tp>&);
  77:/usr/include/c++/6/complex ****   ///  Return complex with magnitude @a rho and angle @a theta.
  78:/usr/include/c++/6/complex ****   template<typename _Tp> complex<_Tp> polar(const _Tp&, const _Tp& = 0);
  79:/usr/include/c++/6/complex **** 
  80:/usr/include/c++/6/complex ****   // Transcendentals:
GAS LISTING /tmp/ccvUPO8Q.s 			page 53


  81:/usr/include/c++/6/complex ****   /// Return complex cosine of @a z.
  82:/usr/include/c++/6/complex ****   template<typename _Tp> complex<_Tp> cos(const complex<_Tp>&);
  83:/usr/include/c++/6/complex ****   /// Return complex hyperbolic cosine of @a z.
  84:/usr/include/c++/6/complex ****   template<typename _Tp> complex<_Tp> cosh(const complex<_Tp>&);
  85:/usr/include/c++/6/complex ****   /// Return complex base e exponential of @a z.
  86:/usr/include/c++/6/complex ****   template<typename _Tp> complex<_Tp> exp(const complex<_Tp>&);
  87:/usr/include/c++/6/complex ****   /// Return complex natural logarithm of @a z.
  88:/usr/include/c++/6/complex ****   template<typename _Tp> complex<_Tp> log(const complex<_Tp>&);
  89:/usr/include/c++/6/complex ****   /// Return complex base 10 logarithm of @a z.
  90:/usr/include/c++/6/complex ****   template<typename _Tp> complex<_Tp> log10(const complex<_Tp>&);
  91:/usr/include/c++/6/complex ****   /// Return @a x to the @a y'th power.
  92:/usr/include/c++/6/complex ****   template<typename _Tp> complex<_Tp> pow(const complex<_Tp>&, int);
  93:/usr/include/c++/6/complex ****   /// Return @a x to the @a y'th power.
  94:/usr/include/c++/6/complex ****   template<typename _Tp> complex<_Tp> pow(const complex<_Tp>&, const _Tp&);
  95:/usr/include/c++/6/complex ****   /// Return @a x to the @a y'th power.
  96:/usr/include/c++/6/complex ****   template<typename _Tp> complex<_Tp> pow(const complex<_Tp>&, 
  97:/usr/include/c++/6/complex ****                                           const complex<_Tp>&);
  98:/usr/include/c++/6/complex ****   /// Return @a x to the @a y'th power.
  99:/usr/include/c++/6/complex ****   template<typename _Tp> complex<_Tp> pow(const _Tp&, const complex<_Tp>&);
 100:/usr/include/c++/6/complex ****   /// Return complex sine of @a z.
 101:/usr/include/c++/6/complex ****   template<typename _Tp> complex<_Tp> sin(const complex<_Tp>&);
 102:/usr/include/c++/6/complex ****   /// Return complex hyperbolic sine of @a z.
 103:/usr/include/c++/6/complex ****   template<typename _Tp> complex<_Tp> sinh(const complex<_Tp>&);
 104:/usr/include/c++/6/complex ****   /// Return complex square root of @a z.
 105:/usr/include/c++/6/complex ****   template<typename _Tp> complex<_Tp> sqrt(const complex<_Tp>&);
 106:/usr/include/c++/6/complex ****   /// Return complex tangent of @a z.
 107:/usr/include/c++/6/complex ****   template<typename _Tp> complex<_Tp> tan(const complex<_Tp>&);
 108:/usr/include/c++/6/complex ****   /// Return complex hyperbolic tangent of @a z.
 109:/usr/include/c++/6/complex ****   template<typename _Tp> complex<_Tp> tanh(const complex<_Tp>&);
 110:/usr/include/c++/6/complex ****     
 111:/usr/include/c++/6/complex ****     
 112:/usr/include/c++/6/complex ****   // 26.2.2  Primary template class complex
 113:/usr/include/c++/6/complex ****   /**
 114:/usr/include/c++/6/complex ****    *  Template to represent complex numbers.
 115:/usr/include/c++/6/complex ****    *
 116:/usr/include/c++/6/complex ****    *  Specializations for float, double, and long double are part of the
 117:/usr/include/c++/6/complex ****    *  library.  Results with any other type are not guaranteed.
 118:/usr/include/c++/6/complex ****    *
 119:/usr/include/c++/6/complex ****    *  @param  Tp  Type of real and imaginary values.
 120:/usr/include/c++/6/complex ****   */
 121:/usr/include/c++/6/complex ****   template<typename _Tp>
 122:/usr/include/c++/6/complex ****     struct complex
 123:/usr/include/c++/6/complex ****     {
 124:/usr/include/c++/6/complex ****       /// Value typedef.
 125:/usr/include/c++/6/complex ****       typedef _Tp value_type;
 126:/usr/include/c++/6/complex ****       
 127:/usr/include/c++/6/complex ****       ///  Default constructor.  First parameter is x, second parameter is y.
 128:/usr/include/c++/6/complex ****       ///  Unspecified parameters default to 0.
 129:/usr/include/c++/6/complex ****       _GLIBCXX_CONSTEXPR complex(const _Tp& __r = _Tp(), const _Tp& __i = _Tp())
 130:/usr/include/c++/6/complex ****       : _M_real(__r), _M_imag(__i) { }
 131:/usr/include/c++/6/complex **** 
 132:/usr/include/c++/6/complex ****       // Let the compiler synthesize the copy constructor
 133:/usr/include/c++/6/complex **** #if __cplusplus >= 201103L
 134:/usr/include/c++/6/complex ****       constexpr complex(const complex&) = default;
 135:/usr/include/c++/6/complex **** #endif
 136:/usr/include/c++/6/complex **** 
 137:/usr/include/c++/6/complex ****       ///  Converting constructor.
GAS LISTING /tmp/ccvUPO8Q.s 			page 54


 138:/usr/include/c++/6/complex ****       template<typename _Up>
 139:/usr/include/c++/6/complex ****         _GLIBCXX_CONSTEXPR complex(const complex<_Up>& __z)
 140:/usr/include/c++/6/complex **** 	: _M_real(__z.real()), _M_imag(__z.imag()) { }
 141:/usr/include/c++/6/complex **** 
 142:/usr/include/c++/6/complex **** #if __cplusplus >= 201103L
 143:/usr/include/c++/6/complex ****       // _GLIBCXX_RESOLVE_LIB_DEFECTS
 144:/usr/include/c++/6/complex ****       // DR 387. std::complex over-encapsulated.
 145:/usr/include/c++/6/complex ****       _GLIBCXX_ABI_TAG_CXX11
 146:/usr/include/c++/6/complex ****       constexpr _Tp 
 147:/usr/include/c++/6/complex ****       real() const { return _M_real; }
 148:/usr/include/c++/6/complex **** 
 149:/usr/include/c++/6/complex ****       _GLIBCXX_ABI_TAG_CXX11
 150:/usr/include/c++/6/complex ****       constexpr _Tp 
 151:/usr/include/c++/6/complex ****       imag() const { return _M_imag; }
 152:/usr/include/c++/6/complex **** #else
 153:/usr/include/c++/6/complex ****       ///  Return real part of complex number.
 154:/usr/include/c++/6/complex ****       _Tp& 
 155:/usr/include/c++/6/complex ****       real() { return _M_real; }
 156:/usr/include/c++/6/complex **** 
 157:/usr/include/c++/6/complex ****       ///  Return real part of complex number.
 158:/usr/include/c++/6/complex ****       const _Tp& 
 159:/usr/include/c++/6/complex ****       real() const { return _M_real; }
 160:/usr/include/c++/6/complex **** 
 161:/usr/include/c++/6/complex ****       ///  Return imaginary part of complex number.
 162:/usr/include/c++/6/complex ****       _Tp& 
 163:/usr/include/c++/6/complex ****       imag() { return _M_imag; }
 164:/usr/include/c++/6/complex **** 
 165:/usr/include/c++/6/complex ****       ///  Return imaginary part of complex number.
 166:/usr/include/c++/6/complex ****       const _Tp& 
 167:/usr/include/c++/6/complex ****       imag() const { return _M_imag; }
 168:/usr/include/c++/6/complex **** #endif
 169:/usr/include/c++/6/complex **** 
 170:/usr/include/c++/6/complex ****       // _GLIBCXX_RESOLVE_LIB_DEFECTS
 171:/usr/include/c++/6/complex ****       // DR 387. std::complex over-encapsulated.
 172:/usr/include/c++/6/complex ****       void 
 173:/usr/include/c++/6/complex ****       real(_Tp __val) { _M_real = __val; }
 174:/usr/include/c++/6/complex **** 
 175:/usr/include/c++/6/complex ****       void 
 176:/usr/include/c++/6/complex ****       imag(_Tp __val) { _M_imag = __val; }
 177:/usr/include/c++/6/complex **** 
 178:/usr/include/c++/6/complex ****       /// Assign a scalar to this complex number.
 179:/usr/include/c++/6/complex ****       complex<_Tp>& operator=(const _Tp&);
 180:/usr/include/c++/6/complex ****       
 181:/usr/include/c++/6/complex ****       /// Add a scalar to this complex number.
 182:/usr/include/c++/6/complex ****       // 26.2.5/1
 183:/usr/include/c++/6/complex ****       complex<_Tp>&
 184:/usr/include/c++/6/complex ****       operator+=(const _Tp& __t)
 185:/usr/include/c++/6/complex ****       {
 186:/usr/include/c++/6/complex **** 	_M_real += __t;
 187:/usr/include/c++/6/complex **** 	return *this;
 188:/usr/include/c++/6/complex ****       }
 189:/usr/include/c++/6/complex **** 
 190:/usr/include/c++/6/complex ****       /// Subtract a scalar from this complex number.
 191:/usr/include/c++/6/complex ****       // 26.2.5/3
 192:/usr/include/c++/6/complex ****       complex<_Tp>&
 193:/usr/include/c++/6/complex ****       operator-=(const _Tp& __t)
 194:/usr/include/c++/6/complex ****       {
GAS LISTING /tmp/ccvUPO8Q.s 			page 55


 195:/usr/include/c++/6/complex **** 	_M_real -= __t;
 196:/usr/include/c++/6/complex **** 	return *this;
 197:/usr/include/c++/6/complex ****       }
 198:/usr/include/c++/6/complex **** 
 199:/usr/include/c++/6/complex ****       /// Multiply this complex number by a scalar.
 200:/usr/include/c++/6/complex ****       complex<_Tp>& operator*=(const _Tp&);
 201:/usr/include/c++/6/complex ****       /// Divide this complex number by a scalar.
 202:/usr/include/c++/6/complex ****       complex<_Tp>& operator/=(const _Tp&);
 203:/usr/include/c++/6/complex **** 
 204:/usr/include/c++/6/complex ****       // Let the compiler synthesize the copy assignment operator
 205:/usr/include/c++/6/complex **** #if __cplusplus >= 201103L
 206:/usr/include/c++/6/complex ****       complex& operator=(const complex&) = default;
 207:/usr/include/c++/6/complex **** #endif
 208:/usr/include/c++/6/complex **** 
 209:/usr/include/c++/6/complex ****       /// Assign another complex number to this one.
 210:/usr/include/c++/6/complex ****       template<typename _Up>
 211:/usr/include/c++/6/complex ****         complex<_Tp>& operator=(const complex<_Up>&);
 212:/usr/include/c++/6/complex ****       /// Add another complex number to this one.
 213:/usr/include/c++/6/complex ****       template<typename _Up>
 214:/usr/include/c++/6/complex ****         complex<_Tp>& operator+=(const complex<_Up>&);
 215:/usr/include/c++/6/complex ****       /// Subtract another complex number from this one.
 216:/usr/include/c++/6/complex ****       template<typename _Up>
 217:/usr/include/c++/6/complex ****         complex<_Tp>& operator-=(const complex<_Up>&);
 218:/usr/include/c++/6/complex ****       /// Multiply this complex number by another.
 219:/usr/include/c++/6/complex ****       template<typename _Up>
 220:/usr/include/c++/6/complex ****         complex<_Tp>& operator*=(const complex<_Up>&);
 221:/usr/include/c++/6/complex ****       /// Divide this complex number by another.
 222:/usr/include/c++/6/complex ****       template<typename _Up>
 223:/usr/include/c++/6/complex ****         complex<_Tp>& operator/=(const complex<_Up>&);
 224:/usr/include/c++/6/complex **** 
 225:/usr/include/c++/6/complex ****       _GLIBCXX_CONSTEXPR complex __rep() const
 226:/usr/include/c++/6/complex ****       { return *this; }
 227:/usr/include/c++/6/complex **** 
 228:/usr/include/c++/6/complex ****     private:
 229:/usr/include/c++/6/complex ****       _Tp _M_real;
 230:/usr/include/c++/6/complex ****       _Tp _M_imag;
 231:/usr/include/c++/6/complex ****     };
 232:/usr/include/c++/6/complex **** 
 233:/usr/include/c++/6/complex ****   template<typename _Tp>
 234:/usr/include/c++/6/complex ****     complex<_Tp>&
 235:/usr/include/c++/6/complex ****     complex<_Tp>::operator=(const _Tp& __t)
 236:/usr/include/c++/6/complex ****     {
 237:/usr/include/c++/6/complex ****      _M_real = __t;
 238:/usr/include/c++/6/complex ****      _M_imag = _Tp();
 239:/usr/include/c++/6/complex ****      return *this;
 240:/usr/include/c++/6/complex ****     } 
 241:/usr/include/c++/6/complex **** 
 242:/usr/include/c++/6/complex ****   // 26.2.5/5
 243:/usr/include/c++/6/complex ****   template<typename _Tp>
 244:/usr/include/c++/6/complex ****     complex<_Tp>&
 245:/usr/include/c++/6/complex ****     complex<_Tp>::operator*=(const _Tp& __t)
 246:/usr/include/c++/6/complex ****     {
 247:/usr/include/c++/6/complex ****       _M_real *= __t;
 248:/usr/include/c++/6/complex ****       _M_imag *= __t;
 249:/usr/include/c++/6/complex ****       return *this;
 250:/usr/include/c++/6/complex ****     }
 251:/usr/include/c++/6/complex **** 
GAS LISTING /tmp/ccvUPO8Q.s 			page 56


 252:/usr/include/c++/6/complex ****   // 26.2.5/7
 253:/usr/include/c++/6/complex ****   template<typename _Tp>
 254:/usr/include/c++/6/complex ****     complex<_Tp>&
 255:/usr/include/c++/6/complex ****     complex<_Tp>::operator/=(const _Tp& __t)
 256:/usr/include/c++/6/complex ****     {
 257:/usr/include/c++/6/complex ****       _M_real /= __t;
 258:/usr/include/c++/6/complex ****       _M_imag /= __t;
 259:/usr/include/c++/6/complex ****       return *this;
 260:/usr/include/c++/6/complex ****     }
 261:/usr/include/c++/6/complex **** 
 262:/usr/include/c++/6/complex ****   template<typename _Tp>
 263:/usr/include/c++/6/complex ****     template<typename _Up>
 264:/usr/include/c++/6/complex ****     complex<_Tp>&
 265:/usr/include/c++/6/complex ****     complex<_Tp>::operator=(const complex<_Up>& __z)
 266:/usr/include/c++/6/complex ****     {
 267:/usr/include/c++/6/complex ****       _M_real = __z.real();
 268:/usr/include/c++/6/complex ****       _M_imag = __z.imag();
 269:/usr/include/c++/6/complex ****       return *this;
 270:/usr/include/c++/6/complex ****     }
 271:/usr/include/c++/6/complex **** 
 272:/usr/include/c++/6/complex ****   // 26.2.5/9
 273:/usr/include/c++/6/complex ****   template<typename _Tp>
 274:/usr/include/c++/6/complex ****     template<typename _Up>
 275:/usr/include/c++/6/complex ****     complex<_Tp>&
 276:/usr/include/c++/6/complex ****     complex<_Tp>::operator+=(const complex<_Up>& __z)
 277:/usr/include/c++/6/complex ****     {
 278:/usr/include/c++/6/complex ****       _M_real += __z.real();
 279:/usr/include/c++/6/complex ****       _M_imag += __z.imag();
 280:/usr/include/c++/6/complex ****       return *this;
 281:/usr/include/c++/6/complex ****     }
 282:/usr/include/c++/6/complex **** 
 283:/usr/include/c++/6/complex ****   // 26.2.5/11
 284:/usr/include/c++/6/complex ****   template<typename _Tp>
 285:/usr/include/c++/6/complex ****     template<typename _Up>
 286:/usr/include/c++/6/complex ****     complex<_Tp>&
 287:/usr/include/c++/6/complex ****     complex<_Tp>::operator-=(const complex<_Up>& __z)
 288:/usr/include/c++/6/complex ****     {
 289:/usr/include/c++/6/complex ****       _M_real -= __z.real();
 290:/usr/include/c++/6/complex ****       _M_imag -= __z.imag();
 291:/usr/include/c++/6/complex ****       return *this;
 292:/usr/include/c++/6/complex ****     }
 293:/usr/include/c++/6/complex **** 
 294:/usr/include/c++/6/complex ****   // 26.2.5/13
 295:/usr/include/c++/6/complex ****   // XXX: This is a grammar school implementation.
 296:/usr/include/c++/6/complex ****   template<typename _Tp>
 297:/usr/include/c++/6/complex ****     template<typename _Up>
 298:/usr/include/c++/6/complex ****     complex<_Tp>&
 299:/usr/include/c++/6/complex ****     complex<_Tp>::operator*=(const complex<_Up>& __z)
 300:/usr/include/c++/6/complex ****     {
 301:/usr/include/c++/6/complex ****       const _Tp __r = _M_real * __z.real() - _M_imag * __z.imag();
 302:/usr/include/c++/6/complex ****       _M_imag = _M_real * __z.imag() + _M_imag * __z.real();
 303:/usr/include/c++/6/complex ****       _M_real = __r;
 304:/usr/include/c++/6/complex ****       return *this;
 305:/usr/include/c++/6/complex ****     }
 306:/usr/include/c++/6/complex **** 
 307:/usr/include/c++/6/complex ****   // 26.2.5/15
 308:/usr/include/c++/6/complex ****   // XXX: This is a grammar school implementation.
GAS LISTING /tmp/ccvUPO8Q.s 			page 57


 309:/usr/include/c++/6/complex ****   template<typename _Tp>
 310:/usr/include/c++/6/complex ****     template<typename _Up>
 311:/usr/include/c++/6/complex ****     complex<_Tp>&
 312:/usr/include/c++/6/complex ****     complex<_Tp>::operator/=(const complex<_Up>& __z)
 313:/usr/include/c++/6/complex ****     {
 314:/usr/include/c++/6/complex ****       const _Tp __r =  _M_real * __z.real() + _M_imag * __z.imag();
 315:/usr/include/c++/6/complex ****       const _Tp __n = std::norm(__z);
 316:/usr/include/c++/6/complex ****       _M_imag = (_M_imag * __z.real() - _M_real * __z.imag()) / __n;
 317:/usr/include/c++/6/complex ****       _M_real = __r / __n;
 318:/usr/include/c++/6/complex ****       return *this;
 319:/usr/include/c++/6/complex ****     }
 320:/usr/include/c++/6/complex ****     
 321:/usr/include/c++/6/complex ****   // Operators:
 322:/usr/include/c++/6/complex ****   //@{
 323:/usr/include/c++/6/complex ****   ///  Return new complex value @a x plus @a y.
 324:/usr/include/c++/6/complex ****   template<typename _Tp>
 325:/usr/include/c++/6/complex ****     inline complex<_Tp>
 326:/usr/include/c++/6/complex ****     operator+(const complex<_Tp>& __x, const complex<_Tp>& __y)
 327:/usr/include/c++/6/complex ****     {
 328:/usr/include/c++/6/complex ****       complex<_Tp> __r = __x;
 329:/usr/include/c++/6/complex ****       __r += __y;
 330:/usr/include/c++/6/complex ****       return __r;
 331:/usr/include/c++/6/complex ****     }
 332:/usr/include/c++/6/complex **** 
 333:/usr/include/c++/6/complex ****   template<typename _Tp>
 334:/usr/include/c++/6/complex ****     inline complex<_Tp>
 335:/usr/include/c++/6/complex ****     operator+(const complex<_Tp>& __x, const _Tp& __y)
 336:/usr/include/c++/6/complex ****     {
 337:/usr/include/c++/6/complex ****       complex<_Tp> __r = __x;
 338:/usr/include/c++/6/complex ****       __r += __y;
 339:/usr/include/c++/6/complex ****       return __r;
 340:/usr/include/c++/6/complex ****     }
 341:/usr/include/c++/6/complex **** 
 342:/usr/include/c++/6/complex ****   template<typename _Tp>
 343:/usr/include/c++/6/complex ****     inline complex<_Tp>
 344:/usr/include/c++/6/complex ****     operator+(const _Tp& __x, const complex<_Tp>& __y)
 345:/usr/include/c++/6/complex ****     {
 346:/usr/include/c++/6/complex ****       complex<_Tp> __r = __y;
 347:/usr/include/c++/6/complex ****       __r += __x;
 348:/usr/include/c++/6/complex ****       return __r;
 349:/usr/include/c++/6/complex ****     }
 350:/usr/include/c++/6/complex ****   //@}
 351:/usr/include/c++/6/complex **** 
 352:/usr/include/c++/6/complex ****   //@{
 353:/usr/include/c++/6/complex ****   ///  Return new complex value @a x minus @a y.
 354:/usr/include/c++/6/complex ****   template<typename _Tp>
 355:/usr/include/c++/6/complex ****     inline complex<_Tp>
 356:/usr/include/c++/6/complex ****     operator-(const complex<_Tp>& __x, const complex<_Tp>& __y)
 357:/usr/include/c++/6/complex ****     {
 358:/usr/include/c++/6/complex ****       complex<_Tp> __r = __x;
 359:/usr/include/c++/6/complex ****       __r -= __y;
 360:/usr/include/c++/6/complex ****       return __r;
 361:/usr/include/c++/6/complex ****     }
 362:/usr/include/c++/6/complex ****     
 363:/usr/include/c++/6/complex ****   template<typename _Tp>
 364:/usr/include/c++/6/complex ****     inline complex<_Tp>
 365:/usr/include/c++/6/complex ****     operator-(const complex<_Tp>& __x, const _Tp& __y)
GAS LISTING /tmp/ccvUPO8Q.s 			page 58


 366:/usr/include/c++/6/complex ****     {
 367:/usr/include/c++/6/complex ****       complex<_Tp> __r = __x;
 368:/usr/include/c++/6/complex ****       __r -= __y;
 369:/usr/include/c++/6/complex ****       return __r;
 370:/usr/include/c++/6/complex ****     }
 371:/usr/include/c++/6/complex **** 
 372:/usr/include/c++/6/complex ****   template<typename _Tp>
 373:/usr/include/c++/6/complex ****     inline complex<_Tp>
 374:/usr/include/c++/6/complex ****     operator-(const _Tp& __x, const complex<_Tp>& __y)
 375:/usr/include/c++/6/complex ****     {
 376:/usr/include/c++/6/complex ****       complex<_Tp> __r(__x, -__y.imag());
 377:/usr/include/c++/6/complex ****       __r -= __y.real();
 378:/usr/include/c++/6/complex ****       return __r;
 379:/usr/include/c++/6/complex ****     }
 380:/usr/include/c++/6/complex ****   //@}
 381:/usr/include/c++/6/complex **** 
 382:/usr/include/c++/6/complex ****   //@{
 383:/usr/include/c++/6/complex ****   ///  Return new complex value @a x times @a y.
 384:/usr/include/c++/6/complex ****   template<typename _Tp>
 385:/usr/include/c++/6/complex ****     inline complex<_Tp>
 386:/usr/include/c++/6/complex ****     operator*(const complex<_Tp>& __x, const complex<_Tp>& __y)
 387:/usr/include/c++/6/complex ****     {
 388:/usr/include/c++/6/complex ****       complex<_Tp> __r = __x;
 389:/usr/include/c++/6/complex ****       __r *= __y;
 390:/usr/include/c++/6/complex ****       return __r;
 391:/usr/include/c++/6/complex ****     }
 392:/usr/include/c++/6/complex **** 
 393:/usr/include/c++/6/complex ****   template<typename _Tp>
 394:/usr/include/c++/6/complex ****     inline complex<_Tp>
 395:/usr/include/c++/6/complex ****     operator*(const complex<_Tp>& __x, const _Tp& __y)
 396:/usr/include/c++/6/complex ****     {
 397:/usr/include/c++/6/complex ****       complex<_Tp> __r = __x;
 398:/usr/include/c++/6/complex ****       __r *= __y;
 399:/usr/include/c++/6/complex ****       return __r;
 400:/usr/include/c++/6/complex ****     }
 401:/usr/include/c++/6/complex **** 
 402:/usr/include/c++/6/complex ****   template<typename _Tp>
 403:/usr/include/c++/6/complex ****     inline complex<_Tp>
 404:/usr/include/c++/6/complex ****     operator*(const _Tp& __x, const complex<_Tp>& __y)
 405:/usr/include/c++/6/complex ****     {
 406:/usr/include/c++/6/complex ****       complex<_Tp> __r = __y;
 407:/usr/include/c++/6/complex ****       __r *= __x;
 408:/usr/include/c++/6/complex ****       return __r;
 409:/usr/include/c++/6/complex ****     }
 410:/usr/include/c++/6/complex ****   //@}
 411:/usr/include/c++/6/complex **** 
 412:/usr/include/c++/6/complex ****   //@{
 413:/usr/include/c++/6/complex ****   ///  Return new complex value @a x divided by @a y.
 414:/usr/include/c++/6/complex ****   template<typename _Tp>
 415:/usr/include/c++/6/complex ****     inline complex<_Tp>
 416:/usr/include/c++/6/complex ****     operator/(const complex<_Tp>& __x, const complex<_Tp>& __y)
 417:/usr/include/c++/6/complex ****     {
 418:/usr/include/c++/6/complex ****       complex<_Tp> __r = __x;
 419:/usr/include/c++/6/complex ****       __r /= __y;
 420:/usr/include/c++/6/complex ****       return __r;
 421:/usr/include/c++/6/complex ****     }
 422:/usr/include/c++/6/complex ****     
GAS LISTING /tmp/ccvUPO8Q.s 			page 59


 423:/usr/include/c++/6/complex ****   template<typename _Tp>
 424:/usr/include/c++/6/complex ****     inline complex<_Tp>
 425:/usr/include/c++/6/complex ****     operator/(const complex<_Tp>& __x, const _Tp& __y)
 426:/usr/include/c++/6/complex ****     {
 427:/usr/include/c++/6/complex ****       complex<_Tp> __r = __x;
 428:/usr/include/c++/6/complex ****       __r /= __y;
 429:/usr/include/c++/6/complex ****       return __r;
 430:/usr/include/c++/6/complex ****     }
 431:/usr/include/c++/6/complex **** 
 432:/usr/include/c++/6/complex ****   template<typename _Tp>
 433:/usr/include/c++/6/complex ****     inline complex<_Tp>
 434:/usr/include/c++/6/complex ****     operator/(const _Tp& __x, const complex<_Tp>& __y)
 435:/usr/include/c++/6/complex ****     {
 436:/usr/include/c++/6/complex ****       complex<_Tp> __r = __x;
 437:/usr/include/c++/6/complex ****       __r /= __y;
 438:/usr/include/c++/6/complex ****       return __r;
 439:/usr/include/c++/6/complex ****     }
 440:/usr/include/c++/6/complex ****   //@}
 441:/usr/include/c++/6/complex **** 
 442:/usr/include/c++/6/complex ****   ///  Return @a x.
 443:/usr/include/c++/6/complex ****   template<typename _Tp>
 444:/usr/include/c++/6/complex ****     inline complex<_Tp>
 445:/usr/include/c++/6/complex ****     operator+(const complex<_Tp>& __x)
 446:/usr/include/c++/6/complex ****     { return __x; }
 447:/usr/include/c++/6/complex **** 
 448:/usr/include/c++/6/complex ****   ///  Return complex negation of @a x.
 449:/usr/include/c++/6/complex ****   template<typename _Tp>
 450:/usr/include/c++/6/complex ****     inline complex<_Tp>
 451:/usr/include/c++/6/complex ****     operator-(const complex<_Tp>& __x)
 452:/usr/include/c++/6/complex ****     {  return complex<_Tp>(-__x.real(), -__x.imag()); }
 453:/usr/include/c++/6/complex **** 
 454:/usr/include/c++/6/complex ****   //@{
 455:/usr/include/c++/6/complex ****   ///  Return true if @a x is equal to @a y.
 456:/usr/include/c++/6/complex ****   template<typename _Tp>
 457:/usr/include/c++/6/complex ****     inline _GLIBCXX_CONSTEXPR bool
 458:/usr/include/c++/6/complex ****     operator==(const complex<_Tp>& __x, const complex<_Tp>& __y)
 459:/usr/include/c++/6/complex ****     { return __x.real() == __y.real() && __x.imag() == __y.imag(); }
 460:/usr/include/c++/6/complex **** 
 461:/usr/include/c++/6/complex ****   template<typename _Tp>
 462:/usr/include/c++/6/complex ****     inline _GLIBCXX_CONSTEXPR bool
 463:/usr/include/c++/6/complex ****     operator==(const complex<_Tp>& __x, const _Tp& __y)
 464:/usr/include/c++/6/complex ****     { return __x.real() == __y && __x.imag() == _Tp(); }
 465:/usr/include/c++/6/complex **** 
 466:/usr/include/c++/6/complex ****   template<typename _Tp>
 467:/usr/include/c++/6/complex ****     inline _GLIBCXX_CONSTEXPR bool
 468:/usr/include/c++/6/complex ****     operator==(const _Tp& __x, const complex<_Tp>& __y)
 469:/usr/include/c++/6/complex ****     { return __x == __y.real() && _Tp() == __y.imag(); }
 470:/usr/include/c++/6/complex ****   //@}
 471:/usr/include/c++/6/complex **** 
 472:/usr/include/c++/6/complex ****   //@{
 473:/usr/include/c++/6/complex ****   ///  Return false if @a x is equal to @a y.
 474:/usr/include/c++/6/complex ****   template<typename _Tp>
 475:/usr/include/c++/6/complex ****     inline _GLIBCXX_CONSTEXPR bool
 476:/usr/include/c++/6/complex ****     operator!=(const complex<_Tp>& __x, const complex<_Tp>& __y)
 477:/usr/include/c++/6/complex ****     { return __x.real() != __y.real() || __x.imag() != __y.imag(); }
 478:/usr/include/c++/6/complex **** 
 479:/usr/include/c++/6/complex ****   template<typename _Tp>
GAS LISTING /tmp/ccvUPO8Q.s 			page 60


 480:/usr/include/c++/6/complex ****     inline _GLIBCXX_CONSTEXPR bool
 481:/usr/include/c++/6/complex ****     operator!=(const complex<_Tp>& __x, const _Tp& __y)
 482:/usr/include/c++/6/complex ****     { return __x.real() != __y || __x.imag() != _Tp(); }
 483:/usr/include/c++/6/complex **** 
 484:/usr/include/c++/6/complex ****   template<typename _Tp>
 485:/usr/include/c++/6/complex ****     inline _GLIBCXX_CONSTEXPR bool
 486:/usr/include/c++/6/complex ****     operator!=(const _Tp& __x, const complex<_Tp>& __y)
 487:/usr/include/c++/6/complex ****     { return __x != __y.real() || _Tp() != __y.imag(); }
 488:/usr/include/c++/6/complex ****   //@}
 489:/usr/include/c++/6/complex **** 
 490:/usr/include/c++/6/complex ****   ///  Extraction operator for complex values.
 491:/usr/include/c++/6/complex ****   template<typename _Tp, typename _CharT, class _Traits>
 492:/usr/include/c++/6/complex ****     basic_istream<_CharT, _Traits>&
 493:/usr/include/c++/6/complex ****     operator>>(basic_istream<_CharT, _Traits>& __is, complex<_Tp>& __x)
 494:/usr/include/c++/6/complex ****     {
 495:/usr/include/c++/6/complex ****       _Tp __re_x, __im_x;
 496:/usr/include/c++/6/complex ****       _CharT __ch;
 497:/usr/include/c++/6/complex ****       __is >> __ch;
 498:/usr/include/c++/6/complex ****       if (__ch == '(') 
 499:/usr/include/c++/6/complex **** 	{
 500:/usr/include/c++/6/complex **** 	  __is >> __re_x >> __ch;
 501:/usr/include/c++/6/complex **** 	  if (__ch == ',') 
 502:/usr/include/c++/6/complex **** 	    {
 503:/usr/include/c++/6/complex **** 	      __is >> __im_x >> __ch;
 504:/usr/include/c++/6/complex **** 	      if (__ch == ')') 
 505:/usr/include/c++/6/complex **** 		__x = complex<_Tp>(__re_x, __im_x);
 506:/usr/include/c++/6/complex **** 	      else
 507:/usr/include/c++/6/complex **** 		__is.setstate(ios_base::failbit);
 508:/usr/include/c++/6/complex **** 	    }
 509:/usr/include/c++/6/complex **** 	  else if (__ch == ')') 
 510:/usr/include/c++/6/complex **** 	    __x = __re_x;
 511:/usr/include/c++/6/complex **** 	  else
 512:/usr/include/c++/6/complex **** 	    __is.setstate(ios_base::failbit);
 513:/usr/include/c++/6/complex **** 	}
 514:/usr/include/c++/6/complex ****       else 
 515:/usr/include/c++/6/complex **** 	{
 516:/usr/include/c++/6/complex **** 	  __is.putback(__ch);
 517:/usr/include/c++/6/complex **** 	  __is >> __re_x;
 518:/usr/include/c++/6/complex **** 	  __x = __re_x;
 519:/usr/include/c++/6/complex **** 	}
 520:/usr/include/c++/6/complex ****       return __is;
 521:/usr/include/c++/6/complex ****     }
 522:/usr/include/c++/6/complex **** 
 523:/usr/include/c++/6/complex ****   ///  Insertion operator for complex values.
 524:/usr/include/c++/6/complex ****   template<typename _Tp, typename _CharT, class _Traits>
 525:/usr/include/c++/6/complex ****     basic_ostream<_CharT, _Traits>&
 526:/usr/include/c++/6/complex ****     operator<<(basic_ostream<_CharT, _Traits>& __os, const complex<_Tp>& __x)
 527:/usr/include/c++/6/complex ****     {
 528:/usr/include/c++/6/complex ****       basic_ostringstream<_CharT, _Traits> __s;
 529:/usr/include/c++/6/complex ****       __s.flags(__os.flags());
 530:/usr/include/c++/6/complex ****       __s.imbue(__os.getloc());
 531:/usr/include/c++/6/complex ****       __s.precision(__os.precision());
 532:/usr/include/c++/6/complex ****       __s << '(' << __x.real() << ',' << __x.imag() << ')';
 533:/usr/include/c++/6/complex ****       return __os << __s.str();
 534:/usr/include/c++/6/complex ****     }
 535:/usr/include/c++/6/complex **** 
 536:/usr/include/c++/6/complex ****   // Values
GAS LISTING /tmp/ccvUPO8Q.s 			page 61


 537:/usr/include/c++/6/complex **** #if __cplusplus >= 201103L
 538:/usr/include/c++/6/complex ****   template<typename _Tp>
 539:/usr/include/c++/6/complex ****     constexpr _Tp
 540:/usr/include/c++/6/complex ****     real(const complex<_Tp>& __z)
 541:/usr/include/c++/6/complex ****     { return __z.real(); }
 542:/usr/include/c++/6/complex **** 
 543:/usr/include/c++/6/complex ****   template<typename _Tp>
 544:/usr/include/c++/6/complex ****     constexpr _Tp
 545:/usr/include/c++/6/complex ****     imag(const complex<_Tp>& __z)
 546:/usr/include/c++/6/complex ****     { return __z.imag(); }
 547:/usr/include/c++/6/complex **** #else
 548:/usr/include/c++/6/complex ****   template<typename _Tp>
 549:/usr/include/c++/6/complex ****     inline _Tp&
 550:/usr/include/c++/6/complex ****     real(complex<_Tp>& __z)
 551:/usr/include/c++/6/complex ****     { return __z.real(); }
 552:/usr/include/c++/6/complex ****     
 553:/usr/include/c++/6/complex ****   template<typename _Tp>
 554:/usr/include/c++/6/complex ****     inline const _Tp&
 555:/usr/include/c++/6/complex ****     real(const complex<_Tp>& __z)
 556:/usr/include/c++/6/complex ****     { return __z.real(); }
 557:/usr/include/c++/6/complex ****     
 558:/usr/include/c++/6/complex ****   template<typename _Tp>
 559:/usr/include/c++/6/complex ****     inline _Tp&
 560:/usr/include/c++/6/complex ****     imag(complex<_Tp>& __z)
 561:/usr/include/c++/6/complex ****     { return __z.imag(); }
 562:/usr/include/c++/6/complex ****     
 563:/usr/include/c++/6/complex ****   template<typename _Tp>
 564:/usr/include/c++/6/complex ****     inline const _Tp&
 565:/usr/include/c++/6/complex ****     imag(const complex<_Tp>& __z)
 566:/usr/include/c++/6/complex ****     { return __z.imag(); }
 567:/usr/include/c++/6/complex **** #endif
 568:/usr/include/c++/6/complex **** 
 569:/usr/include/c++/6/complex ****   // 26.2.7/3 abs(__z):  Returns the magnitude of __z.
 570:/usr/include/c++/6/complex ****   template<typename _Tp>
 571:/usr/include/c++/6/complex ****     inline _Tp
 572:/usr/include/c++/6/complex ****     __complex_abs(const complex<_Tp>& __z)
 573:/usr/include/c++/6/complex ****     {
 574:/usr/include/c++/6/complex ****       _Tp __x = __z.real();
 575:/usr/include/c++/6/complex ****       _Tp __y = __z.imag();
 576:/usr/include/c++/6/complex ****       const _Tp __s = std::max(abs(__x), abs(__y));
 577:/usr/include/c++/6/complex ****       if (__s == _Tp())  // well ...
 578:/usr/include/c++/6/complex ****         return __s;
 579:/usr/include/c++/6/complex ****       __x /= __s; 
 580:/usr/include/c++/6/complex ****       __y /= __s;
 581:/usr/include/c++/6/complex ****       return __s * sqrt(__x * __x + __y * __y);
 582:/usr/include/c++/6/complex ****     }
 583:/usr/include/c++/6/complex **** 
 584:/usr/include/c++/6/complex **** #if _GLIBCXX_USE_C99_COMPLEX
 585:/usr/include/c++/6/complex ****   inline float
 586:/usr/include/c++/6/complex ****   __complex_abs(__complex__ float __z) { return __builtin_cabsf(__z); }
 587:/usr/include/c++/6/complex **** 
 588:/usr/include/c++/6/complex ****   inline double
 589:/usr/include/c++/6/complex ****   __complex_abs(__complex__ double __z) { return __builtin_cabs(__z); }
 590:/usr/include/c++/6/complex **** 
 591:/usr/include/c++/6/complex ****   inline long double
 592:/usr/include/c++/6/complex ****   __complex_abs(const __complex__ long double& __z)
 593:/usr/include/c++/6/complex ****   { return __builtin_cabsl(__z); }
GAS LISTING /tmp/ccvUPO8Q.s 			page 62


 594:/usr/include/c++/6/complex **** 
 595:/usr/include/c++/6/complex ****   template<typename _Tp>
 596:/usr/include/c++/6/complex ****     inline _Tp
 597:/usr/include/c++/6/complex ****     abs(const complex<_Tp>& __z) { return __complex_abs(__z.__rep()); }
 598:/usr/include/c++/6/complex **** #else
 599:/usr/include/c++/6/complex ****   template<typename _Tp>
 600:/usr/include/c++/6/complex ****     inline _Tp
 601:/usr/include/c++/6/complex ****     abs(const complex<_Tp>& __z) { return __complex_abs(__z); }
 602:/usr/include/c++/6/complex **** #endif  
 603:/usr/include/c++/6/complex **** 
 604:/usr/include/c++/6/complex **** 
 605:/usr/include/c++/6/complex ****   // 26.2.7/4: arg(__z): Returns the phase angle of __z.
 606:/usr/include/c++/6/complex ****   template<typename _Tp>
 607:/usr/include/c++/6/complex ****     inline _Tp
 608:/usr/include/c++/6/complex ****     __complex_arg(const complex<_Tp>& __z)
 609:/usr/include/c++/6/complex ****     { return  atan2(__z.imag(), __z.real()); }
 610:/usr/include/c++/6/complex **** 
 611:/usr/include/c++/6/complex **** #if _GLIBCXX_USE_C99_COMPLEX
 612:/usr/include/c++/6/complex ****   inline float
 613:/usr/include/c++/6/complex ****   __complex_arg(__complex__ float __z) { return __builtin_cargf(__z); }
 614:/usr/include/c++/6/complex **** 
 615:/usr/include/c++/6/complex ****   inline double
 616:/usr/include/c++/6/complex ****   __complex_arg(__complex__ double __z) { return __builtin_carg(__z); }
 617:/usr/include/c++/6/complex **** 
 618:/usr/include/c++/6/complex ****   inline long double
 619:/usr/include/c++/6/complex ****   __complex_arg(const __complex__ long double& __z)
 620:/usr/include/c++/6/complex ****   { return __builtin_cargl(__z); }
 621:/usr/include/c++/6/complex **** 
 622:/usr/include/c++/6/complex ****   template<typename _Tp>
 623:/usr/include/c++/6/complex ****     inline _Tp
 624:/usr/include/c++/6/complex ****     arg(const complex<_Tp>& __z) { return __complex_arg(__z.__rep()); }
 625:/usr/include/c++/6/complex **** #else
 626:/usr/include/c++/6/complex ****   template<typename _Tp>
 627:/usr/include/c++/6/complex ****     inline _Tp
 628:/usr/include/c++/6/complex ****     arg(const complex<_Tp>& __z) { return __complex_arg(__z); }
 629:/usr/include/c++/6/complex **** #endif
 630:/usr/include/c++/6/complex **** 
 631:/usr/include/c++/6/complex ****   // 26.2.7/5: norm(__z) returns the squared magnitude of __z.
 632:/usr/include/c++/6/complex ****   //     As defined, norm() is -not- a norm is the common mathematical
 633:/usr/include/c++/6/complex ****   //     sense used in numerics.  The helper class _Norm_helper<> tries to
 634:/usr/include/c++/6/complex ****   //     distinguish between builtin floating point and the rest, so as
 635:/usr/include/c++/6/complex ****   //     to deliver an answer as close as possible to the real value.
 636:/usr/include/c++/6/complex ****   template<bool>
 637:/usr/include/c++/6/complex ****     struct _Norm_helper
 638:/usr/include/c++/6/complex ****     {
 639:/usr/include/c++/6/complex ****       template<typename _Tp>
 640:/usr/include/c++/6/complex ****         static inline _Tp _S_do_it(const complex<_Tp>& __z)
 641:/usr/include/c++/6/complex ****         {
 642:/usr/include/c++/6/complex ****           const _Tp __x = __z.real();
 643:/usr/include/c++/6/complex ****           const _Tp __y = __z.imag();
 644:/usr/include/c++/6/complex ****           return __x * __x + __y * __y;
 645:/usr/include/c++/6/complex ****         }
 646:/usr/include/c++/6/complex ****     };
 647:/usr/include/c++/6/complex **** 
 648:/usr/include/c++/6/complex ****   template<>
 649:/usr/include/c++/6/complex ****     struct _Norm_helper<true>
 650:/usr/include/c++/6/complex ****     {
GAS LISTING /tmp/ccvUPO8Q.s 			page 63


 651:/usr/include/c++/6/complex ****       template<typename _Tp>
 652:/usr/include/c++/6/complex ****         static inline _Tp _S_do_it(const complex<_Tp>& __z)
 653:/usr/include/c++/6/complex ****         {
 654:/usr/include/c++/6/complex ****           _Tp __res = std::abs(__z);
 655:/usr/include/c++/6/complex ****           return __res * __res;
 656:/usr/include/c++/6/complex ****         }
 657:/usr/include/c++/6/complex ****     };
 658:/usr/include/c++/6/complex ****   
 659:/usr/include/c++/6/complex ****   template<typename _Tp>
 660:/usr/include/c++/6/complex ****     inline _Tp
 661:/usr/include/c++/6/complex ****     norm(const complex<_Tp>& __z)
 662:/usr/include/c++/6/complex ****     {
 663:/usr/include/c++/6/complex ****       return _Norm_helper<__is_floating<_Tp>::__value 
 664:/usr/include/c++/6/complex **** 	&& !_GLIBCXX_FAST_MATH>::_S_do_it(__z);
 665:/usr/include/c++/6/complex ****     }
 666:/usr/include/c++/6/complex **** 
 667:/usr/include/c++/6/complex ****   template<typename _Tp>
 668:/usr/include/c++/6/complex ****     inline complex<_Tp>
 669:/usr/include/c++/6/complex ****     polar(const _Tp& __rho, const _Tp& __theta)
 670:/usr/include/c++/6/complex ****     {
 671:/usr/include/c++/6/complex ****       __glibcxx_assert( __rho >= 0 );
 672:/usr/include/c++/6/complex ****       return complex<_Tp>(__rho * cos(__theta), __rho * sin(__theta));
 673:/usr/include/c++/6/complex ****     }
 674:/usr/include/c++/6/complex **** 
 675:/usr/include/c++/6/complex ****   template<typename _Tp>
 676:/usr/include/c++/6/complex ****     inline complex<_Tp>
 677:/usr/include/c++/6/complex ****     conj(const complex<_Tp>& __z)
 678:/usr/include/c++/6/complex ****     { return complex<_Tp>(__z.real(), -__z.imag()); }
 679:/usr/include/c++/6/complex ****   
 680:/usr/include/c++/6/complex ****   // Transcendentals
 681:/usr/include/c++/6/complex **** 
 682:/usr/include/c++/6/complex ****   // 26.2.8/1 cos(__z):  Returns the cosine of __z.
 683:/usr/include/c++/6/complex ****   template<typename _Tp>
 684:/usr/include/c++/6/complex ****     inline complex<_Tp>
 685:/usr/include/c++/6/complex ****     __complex_cos(const complex<_Tp>& __z)
 686:/usr/include/c++/6/complex ****     {
 687:/usr/include/c++/6/complex ****       const _Tp __x = __z.real();
 688:/usr/include/c++/6/complex ****       const _Tp __y = __z.imag();
 689:/usr/include/c++/6/complex ****       return complex<_Tp>(cos(__x) * cosh(__y), -sin(__x) * sinh(__y));
 690:/usr/include/c++/6/complex ****     }
 691:/usr/include/c++/6/complex **** 
 692:/usr/include/c++/6/complex **** #if _GLIBCXX_USE_C99_COMPLEX
 693:/usr/include/c++/6/complex ****   inline __complex__ float
 694:/usr/include/c++/6/complex ****   __complex_cos(__complex__ float __z) { return __builtin_ccosf(__z); }
 695:/usr/include/c++/6/complex **** 
 696:/usr/include/c++/6/complex ****   inline __complex__ double
 697:/usr/include/c++/6/complex ****   __complex_cos(__complex__ double __z) { return __builtin_ccos(__z); }
 698:/usr/include/c++/6/complex **** 
 699:/usr/include/c++/6/complex ****   inline __complex__ long double
 700:/usr/include/c++/6/complex ****   __complex_cos(const __complex__ long double& __z)
 701:/usr/include/c++/6/complex ****   { return __builtin_ccosl(__z); }
 702:/usr/include/c++/6/complex **** 
 703:/usr/include/c++/6/complex ****   template<typename _Tp>
 704:/usr/include/c++/6/complex ****     inline complex<_Tp>
 705:/usr/include/c++/6/complex ****     cos(const complex<_Tp>& __z) { return __complex_cos(__z.__rep()); }
 706:/usr/include/c++/6/complex **** #else
 707:/usr/include/c++/6/complex ****   template<typename _Tp>
GAS LISTING /tmp/ccvUPO8Q.s 			page 64


 708:/usr/include/c++/6/complex ****     inline complex<_Tp>
 709:/usr/include/c++/6/complex ****     cos(const complex<_Tp>& __z) { return __complex_cos(__z); }
 710:/usr/include/c++/6/complex **** #endif
 711:/usr/include/c++/6/complex **** 
 712:/usr/include/c++/6/complex ****   // 26.2.8/2 cosh(__z): Returns the hyperbolic cosine of __z.
 713:/usr/include/c++/6/complex ****   template<typename _Tp>
 714:/usr/include/c++/6/complex ****     inline complex<_Tp>
 715:/usr/include/c++/6/complex ****     __complex_cosh(const complex<_Tp>& __z)
 716:/usr/include/c++/6/complex ****     {
 717:/usr/include/c++/6/complex ****       const _Tp __x = __z.real();
 718:/usr/include/c++/6/complex ****       const _Tp __y = __z.imag();
 719:/usr/include/c++/6/complex ****       return complex<_Tp>(cosh(__x) * cos(__y), sinh(__x) * sin(__y));
 720:/usr/include/c++/6/complex ****     }
 721:/usr/include/c++/6/complex **** 
 722:/usr/include/c++/6/complex **** #if _GLIBCXX_USE_C99_COMPLEX
 723:/usr/include/c++/6/complex ****   inline __complex__ float
 724:/usr/include/c++/6/complex ****   __complex_cosh(__complex__ float __z) { return __builtin_ccoshf(__z); }
 725:/usr/include/c++/6/complex **** 
 726:/usr/include/c++/6/complex ****   inline __complex__ double
 727:/usr/include/c++/6/complex ****   __complex_cosh(__complex__ double __z) { return __builtin_ccosh(__z); }
 728:/usr/include/c++/6/complex **** 
 729:/usr/include/c++/6/complex ****   inline __complex__ long double
 730:/usr/include/c++/6/complex ****   __complex_cosh(const __complex__ long double& __z)
 731:/usr/include/c++/6/complex ****   { return __builtin_ccoshl(__z); }
 732:/usr/include/c++/6/complex **** 
 733:/usr/include/c++/6/complex ****   template<typename _Tp>
 734:/usr/include/c++/6/complex ****     inline complex<_Tp>
 735:/usr/include/c++/6/complex ****     cosh(const complex<_Tp>& __z) { return __complex_cosh(__z.__rep()); }
 736:/usr/include/c++/6/complex **** #else
 737:/usr/include/c++/6/complex ****   template<typename _Tp>
 738:/usr/include/c++/6/complex ****     inline complex<_Tp>
 739:/usr/include/c++/6/complex ****     cosh(const complex<_Tp>& __z) { return __complex_cosh(__z); }
 740:/usr/include/c++/6/complex **** #endif
 741:/usr/include/c++/6/complex **** 
 742:/usr/include/c++/6/complex ****   // 26.2.8/3 exp(__z): Returns the complex base e exponential of x
 743:/usr/include/c++/6/complex ****   template<typename _Tp>
 744:/usr/include/c++/6/complex ****     inline complex<_Tp>
 745:/usr/include/c++/6/complex ****     __complex_exp(const complex<_Tp>& __z)
 746:/usr/include/c++/6/complex ****     { return std::polar<_Tp>(exp(__z.real()), __z.imag()); }
 747:/usr/include/c++/6/complex **** 
 748:/usr/include/c++/6/complex **** #if _GLIBCXX_USE_C99_COMPLEX
 749:/usr/include/c++/6/complex ****   inline __complex__ float
 750:/usr/include/c++/6/complex ****   __complex_exp(__complex__ float __z) { return __builtin_cexpf(__z); }
 751:/usr/include/c++/6/complex **** 
 752:/usr/include/c++/6/complex ****   inline __complex__ double
 753:/usr/include/c++/6/complex ****   __complex_exp(__complex__ double __z) { return __builtin_cexp(__z); }
 754:/usr/include/c++/6/complex **** 
 755:/usr/include/c++/6/complex ****   inline __complex__ long double
 756:/usr/include/c++/6/complex ****   __complex_exp(const __complex__ long double& __z)
 757:/usr/include/c++/6/complex ****   { return __builtin_cexpl(__z); }
 758:/usr/include/c++/6/complex **** 
 759:/usr/include/c++/6/complex ****   template<typename _Tp>
 760:/usr/include/c++/6/complex ****     inline complex<_Tp>
 761:/usr/include/c++/6/complex ****     exp(const complex<_Tp>& __z) { return __complex_exp(__z.__rep()); }
 762:/usr/include/c++/6/complex **** #else
 763:/usr/include/c++/6/complex ****   template<typename _Tp>
 764:/usr/include/c++/6/complex ****     inline complex<_Tp>
GAS LISTING /tmp/ccvUPO8Q.s 			page 65


 765:/usr/include/c++/6/complex ****     exp(const complex<_Tp>& __z) { return __complex_exp(__z); }
 766:/usr/include/c++/6/complex **** #endif
 767:/usr/include/c++/6/complex **** 
 768:/usr/include/c++/6/complex ****   // 26.2.8/5 log(__z): Returns the natural complex logarithm of __z.
 769:/usr/include/c++/6/complex ****   //                    The branch cut is along the negative axis.
 770:/usr/include/c++/6/complex ****   template<typename _Tp>
 771:/usr/include/c++/6/complex ****     inline complex<_Tp>
 772:/usr/include/c++/6/complex ****     __complex_log(const complex<_Tp>& __z)
 773:/usr/include/c++/6/complex ****     { return complex<_Tp>(log(std::abs(__z)), std::arg(__z)); }
 774:/usr/include/c++/6/complex **** 
 775:/usr/include/c++/6/complex **** #if _GLIBCXX_USE_C99_COMPLEX
 776:/usr/include/c++/6/complex ****   inline __complex__ float
 777:/usr/include/c++/6/complex ****   __complex_log(__complex__ float __z) { return __builtin_clogf(__z); }
 778:/usr/include/c++/6/complex **** 
 779:/usr/include/c++/6/complex ****   inline __complex__ double
 780:/usr/include/c++/6/complex ****   __complex_log(__complex__ double __z) { return __builtin_clog(__z); }
 781:/usr/include/c++/6/complex **** 
 782:/usr/include/c++/6/complex ****   inline __complex__ long double
 783:/usr/include/c++/6/complex ****   __complex_log(const __complex__ long double& __z)
 784:/usr/include/c++/6/complex ****   { return __builtin_clogl(__z); }
 785:/usr/include/c++/6/complex **** 
 786:/usr/include/c++/6/complex ****   template<typename _Tp>
 787:/usr/include/c++/6/complex ****     inline complex<_Tp>
 788:/usr/include/c++/6/complex ****     log(const complex<_Tp>& __z) { return __complex_log(__z.__rep()); }
 789:/usr/include/c++/6/complex **** #else
 790:/usr/include/c++/6/complex ****   template<typename _Tp>
 791:/usr/include/c++/6/complex ****     inline complex<_Tp>
 792:/usr/include/c++/6/complex ****     log(const complex<_Tp>& __z) { return __complex_log(__z); }
 793:/usr/include/c++/6/complex **** #endif
 794:/usr/include/c++/6/complex **** 
 795:/usr/include/c++/6/complex ****   template<typename _Tp>
 796:/usr/include/c++/6/complex ****     inline complex<_Tp>
 797:/usr/include/c++/6/complex ****     log10(const complex<_Tp>& __z)
 798:/usr/include/c++/6/complex ****     { return std::log(__z) / log(_Tp(10.0)); }
 799:/usr/include/c++/6/complex **** 
 800:/usr/include/c++/6/complex ****   // 26.2.8/10 sin(__z): Returns the sine of __z.
 801:/usr/include/c++/6/complex ****   template<typename _Tp>
 802:/usr/include/c++/6/complex ****     inline complex<_Tp>
 803:/usr/include/c++/6/complex ****     __complex_sin(const complex<_Tp>& __z)
 804:/usr/include/c++/6/complex ****     {
 805:/usr/include/c++/6/complex ****       const _Tp __x = __z.real();
 806:/usr/include/c++/6/complex ****       const _Tp __y = __z.imag();
 807:/usr/include/c++/6/complex ****       return complex<_Tp>(sin(__x) * cosh(__y), cos(__x) * sinh(__y)); 
 808:/usr/include/c++/6/complex ****     }
 809:/usr/include/c++/6/complex **** 
 810:/usr/include/c++/6/complex **** #if _GLIBCXX_USE_C99_COMPLEX
 811:/usr/include/c++/6/complex ****   inline __complex__ float
 812:/usr/include/c++/6/complex ****   __complex_sin(__complex__ float __z) { return __builtin_csinf(__z); }
 813:/usr/include/c++/6/complex **** 
 814:/usr/include/c++/6/complex ****   inline __complex__ double
 815:/usr/include/c++/6/complex ****   __complex_sin(__complex__ double __z) { return __builtin_csin(__z); }
 816:/usr/include/c++/6/complex **** 
 817:/usr/include/c++/6/complex ****   inline __complex__ long double
 818:/usr/include/c++/6/complex ****   __complex_sin(const __complex__ long double& __z)
 819:/usr/include/c++/6/complex ****   { return __builtin_csinl(__z); }
 820:/usr/include/c++/6/complex **** 
 821:/usr/include/c++/6/complex ****   template<typename _Tp>
GAS LISTING /tmp/ccvUPO8Q.s 			page 66


 822:/usr/include/c++/6/complex ****     inline complex<_Tp>
 823:/usr/include/c++/6/complex ****     sin(const complex<_Tp>& __z) { return __complex_sin(__z.__rep()); }
 824:/usr/include/c++/6/complex **** #else
 825:/usr/include/c++/6/complex ****   template<typename _Tp>
 826:/usr/include/c++/6/complex ****     inline complex<_Tp>
 827:/usr/include/c++/6/complex ****     sin(const complex<_Tp>& __z) { return __complex_sin(__z); }
 828:/usr/include/c++/6/complex **** #endif
 829:/usr/include/c++/6/complex **** 
 830:/usr/include/c++/6/complex ****   // 26.2.8/11 sinh(__z): Returns the hyperbolic sine of __z.
 831:/usr/include/c++/6/complex ****   template<typename _Tp>
 832:/usr/include/c++/6/complex ****     inline complex<_Tp>
 833:/usr/include/c++/6/complex ****     __complex_sinh(const complex<_Tp>& __z)
 834:/usr/include/c++/6/complex ****     {
 835:/usr/include/c++/6/complex ****       const _Tp __x = __z.real();
 836:/usr/include/c++/6/complex ****       const _Tp  __y = __z.imag();
 837:/usr/include/c++/6/complex ****       return complex<_Tp>(sinh(__x) * cos(__y), cosh(__x) * sin(__y));
 838:/usr/include/c++/6/complex ****     }
 839:/usr/include/c++/6/complex **** 
 840:/usr/include/c++/6/complex **** #if _GLIBCXX_USE_C99_COMPLEX
 841:/usr/include/c++/6/complex ****   inline __complex__ float
 842:/usr/include/c++/6/complex ****   __complex_sinh(__complex__ float __z) { return __builtin_csinhf(__z); }      
 843:/usr/include/c++/6/complex **** 
 844:/usr/include/c++/6/complex ****   inline __complex__ double
 845:/usr/include/c++/6/complex ****   __complex_sinh(__complex__ double __z) { return __builtin_csinh(__z); }      
 846:/usr/include/c++/6/complex **** 
 847:/usr/include/c++/6/complex ****   inline __complex__ long double
 848:/usr/include/c++/6/complex ****   __complex_sinh(const __complex__ long double& __z)
 849:/usr/include/c++/6/complex ****   { return __builtin_csinhl(__z); }      
 850:/usr/include/c++/6/complex **** 
 851:/usr/include/c++/6/complex ****   template<typename _Tp>
 852:/usr/include/c++/6/complex ****     inline complex<_Tp>
 853:/usr/include/c++/6/complex ****     sinh(const complex<_Tp>& __z) { return __complex_sinh(__z.__rep()); }
 854:/usr/include/c++/6/complex **** #else
 855:/usr/include/c++/6/complex ****   template<typename _Tp>
 856:/usr/include/c++/6/complex ****     inline complex<_Tp>
 857:/usr/include/c++/6/complex ****     sinh(const complex<_Tp>& __z) { return __complex_sinh(__z); }
 858:/usr/include/c++/6/complex **** #endif
 859:/usr/include/c++/6/complex **** 
 860:/usr/include/c++/6/complex ****   // 26.2.8/13 sqrt(__z): Returns the complex square root of __z.
 861:/usr/include/c++/6/complex ****   //                     The branch cut is on the negative axis.
 862:/usr/include/c++/6/complex ****   template<typename _Tp>
 863:/usr/include/c++/6/complex ****     complex<_Tp>
 864:/usr/include/c++/6/complex ****     __complex_sqrt(const complex<_Tp>& __z)
 865:/usr/include/c++/6/complex ****     {
 866:/usr/include/c++/6/complex ****       _Tp __x = __z.real();
 867:/usr/include/c++/6/complex ****       _Tp __y = __z.imag();
 868:/usr/include/c++/6/complex **** 
 869:/usr/include/c++/6/complex ****       if (__x == _Tp())
 870:/usr/include/c++/6/complex ****         {
 871:/usr/include/c++/6/complex ****           _Tp __t = sqrt(abs(__y) / 2);
 872:/usr/include/c++/6/complex ****           return complex<_Tp>(__t, __y < _Tp() ? -__t : __t);
 873:/usr/include/c++/6/complex ****         }
 874:/usr/include/c++/6/complex ****       else
 875:/usr/include/c++/6/complex ****         {
 876:/usr/include/c++/6/complex ****           _Tp __t = sqrt(2 * (std::abs(__z) + abs(__x)));
 877:/usr/include/c++/6/complex ****           _Tp __u = __t / 2;
 878:/usr/include/c++/6/complex ****           return __x > _Tp()
GAS LISTING /tmp/ccvUPO8Q.s 			page 67


 879:/usr/include/c++/6/complex ****             ? complex<_Tp>(__u, __y / __t)
 880:/usr/include/c++/6/complex ****             : complex<_Tp>(abs(__y) / __t, __y < _Tp() ? -__u : __u);
 881:/usr/include/c++/6/complex ****         }
 882:/usr/include/c++/6/complex ****     }
 883:/usr/include/c++/6/complex **** 
 884:/usr/include/c++/6/complex **** #if _GLIBCXX_USE_C99_COMPLEX
 885:/usr/include/c++/6/complex ****   inline __complex__ float
 886:/usr/include/c++/6/complex ****   __complex_sqrt(__complex__ float __z) { return __builtin_csqrtf(__z); }
 887:/usr/include/c++/6/complex **** 
 888:/usr/include/c++/6/complex ****   inline __complex__ double
 889:/usr/include/c++/6/complex ****   __complex_sqrt(__complex__ double __z) { return __builtin_csqrt(__z); }
 890:/usr/include/c++/6/complex **** 
 891:/usr/include/c++/6/complex ****   inline __complex__ long double
 892:/usr/include/c++/6/complex ****   __complex_sqrt(const __complex__ long double& __z)
 893:/usr/include/c++/6/complex ****   { return __builtin_csqrtl(__z); }
 894:/usr/include/c++/6/complex **** 
 895:/usr/include/c++/6/complex ****   template<typename _Tp>
 896:/usr/include/c++/6/complex ****     inline complex<_Tp>
 897:/usr/include/c++/6/complex ****     sqrt(const complex<_Tp>& __z) { return __complex_sqrt(__z.__rep()); }
 898:/usr/include/c++/6/complex **** #else
 899:/usr/include/c++/6/complex ****   template<typename _Tp>
 900:/usr/include/c++/6/complex ****     inline complex<_Tp>
 901:/usr/include/c++/6/complex ****     sqrt(const complex<_Tp>& __z) { return __complex_sqrt(__z); }
 902:/usr/include/c++/6/complex **** #endif
 903:/usr/include/c++/6/complex **** 
 904:/usr/include/c++/6/complex ****   // 26.2.8/14 tan(__z):  Return the complex tangent of __z.
 905:/usr/include/c++/6/complex ****   
 906:/usr/include/c++/6/complex ****   template<typename _Tp>
 907:/usr/include/c++/6/complex ****     inline complex<_Tp>
 908:/usr/include/c++/6/complex ****     __complex_tan(const complex<_Tp>& __z)
 909:/usr/include/c++/6/complex ****     { return std::sin(__z) / std::cos(__z); }
 910:/usr/include/c++/6/complex **** 
 911:/usr/include/c++/6/complex **** #if _GLIBCXX_USE_C99_COMPLEX
 912:/usr/include/c++/6/complex ****   inline __complex__ float
 913:/usr/include/c++/6/complex ****   __complex_tan(__complex__ float __z) { return __builtin_ctanf(__z); }
 914:/usr/include/c++/6/complex **** 
 915:/usr/include/c++/6/complex ****   inline __complex__ double
 916:/usr/include/c++/6/complex ****   __complex_tan(__complex__ double __z) { return __builtin_ctan(__z); }
 917:/usr/include/c++/6/complex **** 
 918:/usr/include/c++/6/complex ****   inline __complex__ long double
 919:/usr/include/c++/6/complex ****   __complex_tan(const __complex__ long double& __z)
 920:/usr/include/c++/6/complex ****   { return __builtin_ctanl(__z); }
 921:/usr/include/c++/6/complex **** 
 922:/usr/include/c++/6/complex ****   template<typename _Tp>
 923:/usr/include/c++/6/complex ****     inline complex<_Tp>
 924:/usr/include/c++/6/complex ****     tan(const complex<_Tp>& __z) { return __complex_tan(__z.__rep()); }
 925:/usr/include/c++/6/complex **** #else
 926:/usr/include/c++/6/complex ****   template<typename _Tp>
 927:/usr/include/c++/6/complex ****     inline complex<_Tp>
 928:/usr/include/c++/6/complex ****     tan(const complex<_Tp>& __z) { return __complex_tan(__z); }
 929:/usr/include/c++/6/complex **** #endif
 930:/usr/include/c++/6/complex **** 
 931:/usr/include/c++/6/complex **** 
 932:/usr/include/c++/6/complex ****   // 26.2.8/15 tanh(__z):  Returns the hyperbolic tangent of __z.
 933:/usr/include/c++/6/complex ****   
 934:/usr/include/c++/6/complex ****   template<typename _Tp>
 935:/usr/include/c++/6/complex ****     inline complex<_Tp>
GAS LISTING /tmp/ccvUPO8Q.s 			page 68


 936:/usr/include/c++/6/complex ****     __complex_tanh(const complex<_Tp>& __z)
 937:/usr/include/c++/6/complex ****     { return std::sinh(__z) / std::cosh(__z); }
 938:/usr/include/c++/6/complex **** 
 939:/usr/include/c++/6/complex **** #if _GLIBCXX_USE_C99_COMPLEX
 940:/usr/include/c++/6/complex ****   inline __complex__ float
 941:/usr/include/c++/6/complex ****   __complex_tanh(__complex__ float __z) { return __builtin_ctanhf(__z); }
 942:/usr/include/c++/6/complex **** 
 943:/usr/include/c++/6/complex ****   inline __complex__ double
 944:/usr/include/c++/6/complex ****   __complex_tanh(__complex__ double __z) { return __builtin_ctanh(__z); }
 945:/usr/include/c++/6/complex **** 
 946:/usr/include/c++/6/complex ****   inline __complex__ long double
 947:/usr/include/c++/6/complex ****   __complex_tanh(const __complex__ long double& __z)
